文件：HT66F0185.c  编译器版本 HGASM 0202 页次1


   1  0000              ; Generated by holtek-gcc v3.18, Tue Jun 26 18:03:20 2018
   2  0000              ; 
   3  0000              ; Configuration:
   4  0000              ;       without long instruction
   5  0000              ;       Single ROM, Multi-RAM
   6  0000              ;       bits_per_rom_unit:16
   7  0000              ;       with mp1
   8  0000              ;       with tbhp, address(0x9)
   9  0000              ;          Use tabrd-const
  10  0000              ;       
  11  0000              ;       
  12  0000              ;       
  13  0000              ; use 'tabrdc' instead of 'tabrd'
  14  0000              ;       
  15  0000              
  16  0000              #pragma translator "holtek-gcc 4.6.4" "3.18" "build 20130711"
  17  0000              ; Rebuild 126
  18  0000              
  19  0000              ir equ [2]
  20  0000              mp equ [3]
  21  0000              sbp equ [1]
  22  0000              acc equ [5]
  23  0000              bp equ [4]
  24  0000              tblp equ [7]
  25  0000              tbhp equ [9]
  26  0000              status equ [10]
  27  0000              c equ [10].0
  28  0000              ac equ [10].1
  29  0000              z equ [10].2
  30  0000              ov equ [10].3
  31  0000              intc equ [11]
  32  0000              
  33  0000              extern ra:byte
  34  0000              extern rb:byte
  35  0000              extern rc:byte
  36  0000              extern rd:byte
  37  0000              extern re:byte
  38  0000              extern rf:byte
  39  0000              extern rg:byte
  40  0000              extern rh:byte
  41  0000              extern _Crom2Prom:near
  42  0000              extern _Crom2PromNext:near
  43  0000              
  44  0000              RAMBANK 0 @HCCINIT, @HCCINIT0
  45  0000              
  46  0000              RAMBANK 0 @BITDATASEC, @BITDATASEC1
  47  0000              @HCCINIT	.section 'data'
  48  0000              @HCCINIT0	.section 'data'
  49  0000              @BITDATASEC	 .section 'data'
  50  0000              @BITDATASEC1	 .section 'data'
  51  0000              
  52  0000              #pragma debug scope 1 1
  53  0000              	extern __DELAY3:near
  54  0000              	extern __DELAYX3:near
  55  0000              	extern __DELAYX6:near
  56  0000              	extern __DELAYY5:near
  57  0000              	extern __DELAYY3:near
  58  0000              	extern _builtin_holtek_delay_2:byte
  59  0000              public _c_num
文件：HT66F0185.ASM 编译器版本 HGASM 0202 页次2

  60  0000              @crom	.section 'crom'

   3  0000              #line 3 "D:\Project\pcollar640\HT66F0185\head.h"
   3  0000              @crom	.section	'crom'
   3  0000              _c_num:
   3  0000              #pragma debug array 42 8 10 1
   3  0000              #pragma debug array 42 8 10 1
   3  0000              #pragma debug variable 42 1 _c_num "c_num"
   3  0000              	db 95
   3  0001              	db 6
   3  0001              	db 107
   3  0002              	db 47
   3  0002              	db 54
   3  0003              	db 61
   3  0003              	db 125
   3  0004              	db 7
   3  0004              	db 127
   3  0005              	db 63
   3  0005              public _c_cmt_init
  25  0005              #line 25 "D:\Project\pcollar640\HT66F0185\head.h"
  25  0005              @crom	.section	'crom'
  25  0005              _c_cmt_init:
  25  0005              #pragma debug array 43 8 96 1
  25  0005              #pragma debug array 43 8 96 1
  25  0005              #pragma debug variable 43 1 _c_cmt_init "c_cmt_init"
  25  0005              	db 64
  25  0006              	db 102
  25  0006              	db -20
  25  0007              	db 29
  25  0007              	db -16
  25  0008              	db -128
  25  0008              	db 20
  25  0009              	db 8
  25  0009              	db -111
  25  000A              	db 2
  25  000A              	db 2
  25  000B              	db -48
  25  000B              	db -82
  25  000C              	db -32
  25  000C              	db 53
  25  000D              	db 0
  25  000D              	db 0
  25  000E              	db -12
  25  000E              	db 16
  25  000F              	db -30
  25  000F              	db 66
  25  0010              	db 32
  25  0010              	db 0
  25  0011              	db -127
  25  0011              	db 66
  25  0012              	db 113
  25  0012              	db -50
  25  0013              	db 28
  25  0013              	db 66
  25  0014              	db 91
  25  0014              	db 28
  25  0015              	db 28
  25  0015              	db -54
  25  0016              	db 96
  25  0016              	db 16
文件：head.h       编译器版本 HGASM 0202 页次3

  25  0017              	db 51
  25  0017              	db -31
  25  0018              	db 54
  25  0018              	db 24
  25  0019              	db 10
  25  0019              	db -97
  25  001A              	db 56
  25  001A              	db 41
  25  001B              	db 41
  25  001B              	db -64
  25  001C              	db -108
  25  001C              	db 10
  25  001D              	db 83
  25  001D              	db 8
  25  001E              	db 0
  25  001E              	db -76
  25  001F              	db 0
  25  001F              	db 0
  25  0020              	db 1
  25  0020              	db 0
  25  0021              	db 0
  25  0021              	db 18
  25  0022              	db -81
  25  0022              	db 0
  25  0023              	db -86
  25  0023              	db 2
  25  0024              	db 0
  25  0024              	db 0
  25  0025              	db 0
  25  0025              	db 0
  25  0026              	db 0
  25  0026              	db 0
  25  0027              	db -44
  25  0027              	db 45
  25  0028              	db 0
  25  0028              	db 3
  25  0029              	db 0
  25  0029              	db 0
  25  002A              	db 0
  25  002A              	db 0
  25  002B              	db 0
  25  002B              	db 0
  25  002C              	db 0
  25  002C              	db 0
  25  002D              	db 96
  25  002D              	db -1
  25  002E              	db 0
  25  002E              	db 1
  25  002F              	db 31
  25  002F              	db 16
  25  0030              	db 80
  25  0030              	db 25
  25  0031              	db 12
  25  0031              	db 0
  25  0032              	db 15
  25  0032              	db -112
  25  0033              	db 0
  25  0033              	db -118
  25  0034              	db 24
  25  0034              	db 63
文件：head.h       编译器版本 HGASM 0202 页次4

  25  0035              	db 127

  19  0035              #line 19 "D:\Project\pcollar640\HT66F0185\HT66F0185.c"
  19  0035              public _a_lcd_count
  19  0000              @HCCINIT0 .section 'data'
  19  0000              _a_lcd_count	db 0
  19  0001              #pragma debug variable 8 1 _a_lcd_count "a_lcd_count"
  19  0001              
  19  0000              @HCCINIT .section 'data'
  19  0000              #line 19 "D:\Project\pcollar640\HT66F0185\HT66F0185.c"
  19  0000              public _lcd_data
  19  0001              @HCCINIT0 .section 'data'
  19  0001  0002[       _lcd_data	db 2 dup(0)
            00
            ]
  19  0003              #pragma debug array 44 8 2 1
  19  0003              #pragma debug array 44 8 2 1
  19  0003              #pragma debug variable 44 1 _lcd_data "lcd_data"
  19  0003              
  19  0000              @HCCINIT .section 'data'
  19  0000              #line 19 "D:\Project\pcollar640\HT66F0185\HT66F0185.c"
  19  0000              public _a_100ms
  19  0003              @HCCINIT0 .section 'data'
  19  0003              _a_100ms	db 0
  19  0004              #pragma debug variable 8 1 _a_100ms "a_100ms"
  19  0004              
  19  0000              @HCCINIT .section 'data'
  19  0000              #line 19 "D:\Project\pcollar640\HT66F0185\HT66F0185.c"
  19  0000              public _a_count
  19  0004              @HCCINIT0 .section 'data'
  19  0004              _a_count	db 0
  19  0005              #pragma debug variable 8 1 _a_count "a_count"
  19  0005              
  19  0000              @HCCINIT .section 'data'
  19  0000              #line 19 "D:\Project\pcollar640\HT66F0185\HT66F0185.c"
  19  0000              public _a_10count
  19  0005              @HCCINIT0 .section 'data'
  19  0005              _a_10count	db 0
  19  0006              #pragma debug variable 8 1 _a_10count "a_10count"
  19  0006              
  19  0000              @HCCINIT .section 'data'
  19  0000              #line 19 "D:\Project\pcollar640\HT66F0185\HT66F0185.c"
  19  0000              public _a_10ms
  19  0006              @HCCINIT0 .section 'data'
  19  0006              _a_10ms	db 0
  19  0007              #pragma debug variable 8 1 _a_10ms "a_10ms"
  19  0007              
  19  0000              @HCCINIT .section 'data'
  19  0000              #line 19 "D:\Project\pcollar640\HT66F0185\HT66F0185.c"
  19  0000              public _a_500ms
  19  0007              @HCCINIT0 .section 'data'
  19  0007              _a_500ms	db 0
  19  0008              #pragma debug variable 8 1 _a_500ms "a_500ms"
  19  0008              
  19  0000              @HCCINIT .section 'data'
  19  0000              #line 19 "D:\Project\pcollar640\HT66F0185\HT66F0185.c"
  19  0000              public _a_1min
  19  0008              @HCCINIT0 .section 'data'
  19  0008              _a_1min	db 0
  19  0009              #pragma debug variable 8 1 _a_1min "a_1min"
文件：HT66F0185.c  编译器版本 HGASM 0202 页次5

  19  0009              
  19  0000              @HCCINIT .section 'data'
  20  0000              #line 20 "D:\Project\pcollar640\HT66F0185\HT66F0185.c"
  20  0000              public _a_k1_high
  20  0009              @HCCINIT0 .section 'data'
  20  0009              _a_k1_high	db 0
  20  000A              #pragma debug variable 8 1 _a_k1_high "a_k1_high"
  20  000A              
  20  0000              @HCCINIT .section 'data'
  20  0000              #line 20 "D:\Project\pcollar640\HT66F0185\HT66F0185.c"
  20  0000              public _a_k1_low
  20  000A              @HCCINIT0 .section 'data'
  20  000A              _a_k1_low	db 0
  20  000B              #pragma debug variable 8 1 _a_k1_low "a_k1_low"
  20  000B              
  20  0000              @HCCINIT .section 'data'
  20  0000              #line 20 "D:\Project\pcollar640\HT66F0185\HT66F0185.c"
  20  0000              public _a_k2_high
  20  000B              @HCCINIT0 .section 'data'
  20  000B              _a_k2_high	db 0
  20  000C              #pragma debug variable 8 1 _a_k2_high "a_k2_high"
  20  000C              
  20  0000              @HCCINIT .section 'data'
  20  0000              #line 20 "D:\Project\pcollar640\HT66F0185\HT66F0185.c"
  20  0000              public _a_k2_low
  20  000C              @HCCINIT0 .section 'data'
  20  000C              _a_k2_low	db 0
  20  000D              #pragma debug variable 8 1 _a_k2_low "a_k2_low"
  20  000D              
  20  0000              @HCCINIT .section 'data'
  20  0000              #line 20 "D:\Project\pcollar640\HT66F0185\HT66F0185.c"
  20  0000              public _a_k3_high
  20  000D              @HCCINIT0 .section 'data'
  20  000D              _a_k3_high	db 0
  20  000E              #pragma debug variable 8 1 _a_k3_high "a_k3_high"
  20  000E              
  20  0000              @HCCINIT .section 'data'
  20  0000              #line 20 "D:\Project\pcollar640\HT66F0185\HT66F0185.c"
  20  0000              public _a_k3_low
  20  000E              @HCCINIT0 .section 'data'
  20  000E              _a_k3_low	db 0
  20  000F              #pragma debug variable 8 1 _a_k3_low "a_k3_low"
  20  000F              
  20  0000              @HCCINIT .section 'data'
  20  0000              #line 20 "D:\Project\pcollar640\HT66F0185\HT66F0185.c"
  20  0000              public _a_k4_high
  20  000F              @HCCINIT0 .section 'data'
  20  000F              _a_k4_high	db 0
  20  0010              #pragma debug variable 8 1 _a_k4_high "a_k4_high"
  20  0010              
  20  0000              @HCCINIT .section 'data'
  20  0000              #line 20 "D:\Project\pcollar640\HT66F0185\HT66F0185.c"
  20  0000              public _a_k4_low
  20  0010              @HCCINIT0 .section 'data'
  20  0010              _a_k4_low	db 0
  20  0011              #pragma debug variable 8 1 _a_k4_low "a_k4_low"
  20  0011              
  20  0000              @HCCINIT .section 'data'
  20  0000              #line 20 "D:\Project\pcollar640\HT66F0185\HT66F0185.c"
  20  0000              public _a_k5_high
文件：HT66F0185.c  编译器版本 HGASM 0202 页次6

  20  0011              @HCCINIT0 .section 'data'
  20  0011              _a_k5_high	db 0
  20  0012              #pragma debug variable 8 1 _a_k5_high "a_k5_high"
  20  0012              
  20  0000              @HCCINIT .section 'data'
  20  0000              #line 20 "D:\Project\pcollar640\HT66F0185\HT66F0185.c"
  20  0000              public _a_k5_low
  20  0012              @HCCINIT0 .section 'data'
  20  0012              _a_k5_low	db 0
  20  0013              #pragma debug variable 8 1 _a_k5_low "a_k5_low"
  20  0013              
  20  0000              @HCCINIT .section 'data'
  21  0000              #line 21 "D:\Project\pcollar640\HT66F0185\HT66F0185.c"
  21  0000              public _f_flag
  21  0013              @HCCINIT0 .section 'data'
  21  0013  0003[       _f_flag	db 3 dup(0)
            00
            ]
  21  0016              #pragma debug struct_end
  21  0016              #pragma debug struct_end
  21  0016              #pragma debug variable 45 1 _f_flag "f_flag"
  21  0016              
  21  0000              @HCCINIT .section 'data'
  22  0000              #line 22 "D:\Project\pcollar640\HT66F0185\HT66F0185.c"
  22  0000              public _a_data
  22  0016              @HCCINIT0 .section 'data'
  22  0016              _a_data	db 0
  22  0017              #pragma debug variable 8 1 _a_data "a_data"
  22  0017              
  22  0000              @HCCINIT .section 'data'
  22  0000              #line 22 "D:\Project\pcollar640\HT66F0185\HT66F0185.c"
  22  0000              public _a_tx
  22  0017              @HCCINIT0 .section 'data'
  22  0017  0004[       _a_tx	db 4 dup(0)
            00
            ]
  22  001B              #pragma debug array 46 8 4 1
  22  001B              #pragma debug array 46 8 4 1
  22  001B              #pragma debug variable 46 1 _a_tx "a_tx"
  22  001B              
  22  0000              @HCCINIT .section 'data'
  22  0000              #line 22 "D:\Project\pcollar640\HT66F0185\HT66F0185.c"
  22  0000              public _a_tx_count
  22  001B              @HCCINIT0 .section 'data'
  22  001B              _a_tx_count	db 0
  22  001C              #pragma debug variable 8 1 _a_tx_count "a_tx_count"
  22  001C              
  22  0000              @HCCINIT .section 'data'
  22  0000              #line 22 "D:\Project\pcollar640\HT66F0185\HT66F0185.c"
  22  0000              public _a_set_count
  22  001C              @HCCINIT0 .section 'data'
  22  001C              _a_set_count	db 0
  22  001D              #pragma debug variable 8 1 _a_set_count "a_set_count"
  22  001D              
  22  0000              @HCCINIT .section 'data'
  28  0000              #line 28 "D:\Project\pcollar640\HT66F0185\HT66F0185.c"
  28  0000              public _ad_data
  28  001D              @HCCINIT0 .section 'data'
  28  001D              _ad_data	db 0
  28  001E              #pragma debug variable 8 1 _ad_data "ad_data"
文件：HT66F0185.c  编译器版本 HGASM 0202 页次7

  28  001E              
  28  0000              @HCCINIT .section 'data'
  28  0000              #line 28 "D:\Project\pcollar640\HT66F0185\HT66F0185.c"
  28  0000              public _a_voltage_count
  28  001E              @HCCINIT0 .section 'data'
  28  001E              _a_voltage_count	db 0
  28  001F              #pragma debug variable 8 1 _a_voltage_count "a_voltage_count"
  28  001F              
  28  0000              @HCCINIT .section 'data'
  28  0000              #line 28 "D:\Project\pcollar640\HT66F0185\HT66F0185.c"
  28  0000              public _a_voltage_level
  28  001F              @HCCINIT0 .section 'data'
  28  001F              _a_voltage_level	db 0
  28  0020              #pragma debug variable 8 1 _a_voltage_level "a_voltage_level"
  28  0020              
  28  0000              @HCCINIT .section 'data'
  29  0000              #line 29 "D:\Project\pcollar640\HT66F0185\HT66F0185.c"
  29  0000              public _ad_voltage_buf
  29  0020              @HCCINIT0 .section 'data'
  29  0020  0002[       _ad_voltage_buf	db 2 dup(0)
            00
            ]
  29  0022              #pragma debug variable 12 1 _ad_voltage_buf "ad_voltage_buf"
  29  0022              
  29  0000              @HCCINIT .section 'data'
  29  0000              ___mfi1 equ [18]
  29  0000              ___pac equ [21]
  29  0000              ___pc equ [65]
  29  0000              ___pa equ [20]
  29  0000              ___pb equ [37]
  29  0000              ___slcdc0 equ [74]
  29  0000              ___slcdc1 equ [75]
  29  0000              ___slcdc3 equ [77]
  29  0000              ___slcdc4 equ [78]
  29  0000              ___papu equ [22]
  29  0000              public _TM1_int
  29  0000              #pragma debug scope 2 1
  38  0000              #line 38 "D:\Project\pcollar640\HT66F0185\HT66F0185.c"
  38  0000              @TM1_int_code .section at 16 'code'
  38  0000  0080     E  	mov r1,a
  38  0001  070A        	mov a,status
  38  0002  0080     E  	mov r2,a
  38  0003  2800     R  	jmp _TM1_int
  38  0004              #pragma debug scope 1 1
  38  0004              @dummy16 endp
  38  0004              #pragma debug scope 3 1
  38  0000              _TM1_int .section 'code'
  38  0000              _TM1_int proc
  39  0000              #line 39 "D:\Project\pcollar640\HT66F0185\HT66F0185.c"
  39  0000  0712        	mov a,[18]
  39  0001  0080     E  	mov ra,a
  39  0002  0F20        	mov a,32
  39  0003  0680     E  	andm a,ra
  39  0004  1080     E  	sz ra
  39  0005  2800     R  	jmp _LI1
  39  0006  2800     R  	jmp _L1
  39  0007              _LI1:
  41  0007              #line 41 "D:\Project\pcollar640\HT66F0185\HT66F0185.c"
  41  0007  3692        	clr [18].5
  42  0008              #line 42 "D:\Project\pcollar640\HT66F0185\HT66F0185.c"
文件：HT66F0185.c  编译器版本 HGASM 0202 页次8

  42  0008  0700     R  	mov a,_a_10ms[0]
  42  0009  0080     E  	mov ra,a
  42  000A  1480     E  	inc ra
  42  000B  0700     E  	mov a,ra
  42  000C  0080     R  	mov _a_10ms[0],a
  43  000D              #line 43 "D:\Project\pcollar640\HT66F0185\HT66F0185.c"
  43  000D  0700     R  	mov a,_a_10ms[0]
  43  000E  0080     E  	mov ra,a
  43  000F  0F07        	mov a,7
  43  0010  0200     E  	sub a,ra
  43  0011  3C0A        	sz c
  43  0012  2800     R  	jmp _L3
  45  0013              #line 45 "D:\Project\pcollar640\HT66F0185\HT66F0185.c"
  45  0013  1F00     R  	clr _a_10ms[0]
  46  0014              #line 46 "D:\Project\pcollar640\HT66F0185\HT66F0185.c"
  46  0014  3000     R  	set _f_flag[1].2
  47  0015              #line 47 "D:\Project\pcollar640\HT66F0185\HT66F0185.c"
  47  0015  0700     R  	mov a,_a_500ms[0]
  47  0016  0080     E  	mov ra,a
  47  0017  1480     E  	inc ra
  47  0018  0700     E  	mov a,ra
  47  0019  0080     R  	mov _a_500ms[0],a
  48  001A              #line 48 "D:\Project\pcollar640\HT66F0185\HT66F0185.c"
  48  001A  0700     R  	mov a,_a_500ms[0]
  48  001B  0080     E  	mov ra,a
  48  001C  0F31        	mov a,49
  48  001D  0200     E  	sub a,ra
  48  001E  3C0A        	sz c
  48  001F  2800     R  	jmp _L3
  50  0020              #line 50 "D:\Project\pcollar640\HT66F0185\HT66F0185.c"
  50  0020  1F00     R  	clr _a_500ms[0]
  51  0021              #line 51 "D:\Project\pcollar640\HT66F0185\HT66F0185.c"
  51  0021  3000     R  	set _f_flag[2].1
  52  0022              #line 52 "D:\Project\pcollar640\HT66F0185\HT66F0185.c"
  52  0022  0700     R  	mov a,_a_1min[0]
  52  0023  0080     E  	mov ra,a
  52  0024  1480     E  	inc ra
  52  0025  0700     E  	mov a,ra
  52  0026  0080     R  	mov _a_1min[0],a
  53  0027              #line 53 "D:\Project\pcollar640\HT66F0185\HT66F0185.c"
  53  0027  0700     R  	mov a,_a_1min[0]
  53  0028  0080     E  	mov ra,a
  53  0029  0F0B        	mov a,11
  53  002A  0200     E  	sub a,ra
  53  002B  3C0A        	sz c
  53  002C  2800     R  	jmp _L3
  55  002D              #line 55 "D:\Project\pcollar640\HT66F0185\HT66F0185.c"
  55  002D  1F00     R  	clr _a_1min[0]
  56  002E              #line 56 "D:\Project\pcollar640\HT66F0185\HT66F0185.c"
  56  002E  3000     R  	set _f_flag[2].2
  57  002F              #line 57 "D:\Project\pcollar640\HT66F0185\HT66F0185.c"
  57  002F  3000     R  	set _f_flag[2].3
  57  0030              _L3:
  62  0030              #line 62 "D:\Project\pcollar640\HT66F0185\HT66F0185.c"
  62  0030  0700     R  	mov a,_a_lcd_count[0]
  62  0031  0080     E  	mov ra,a
  62  0032  1480     E  	inc ra
  62  0033  0700     E  	mov a,ra
  62  0034  0080     R  	mov _a_lcd_count[0],a
  63  0035              #line 63 "D:\Project\pcollar640\HT66F0185\HT66F0185.c"
文件：HT66F0185.c  编译器版本 HGASM 0202 页次9

  63  0035  0700     R  	mov a,_a_lcd_count[0]
  63  0036  0080     E  	mov ra,a
  63  0037  0F08        	mov a,8
  63  0038  0200     E  	sub a,ra
  63  0039  3C0A        	sz c
  63  003A  2800     R  	jmp _L4
  63  003B  1F00     R  	clr _a_lcd_count[0]
  63  003C              _L4:
  64  003C              #line 64 "D:\Project\pcollar640\HT66F0185\HT66F0185.c"
  64  003C  0700     R  	mov a,_a_lcd_count[0]
  64  003D  0080     E  	mov ra,a
  64  003E  0F07        	mov a,7
  64  003F  0200     E  	sub a,ra
  64  0040  380A        	snz c
  64  0041  2800     R  	jmp _L5
  66  0042              #line 66 "D:\Project\pcollar640\HT66F0185\HT66F0185.c"
  66  0042  3595        	clr [21].3
  67  0043              #line 67 "D:\Project\pcollar640\HT66F0185\HT66F0185.c"
  67  0043  3541        	clr [65].2
  68  0044              #line 68 "D:\Project\pcollar640\HT66F0185\HT66F0185.c"
  68  0044  36C1        	clr [65].5
  69  0045              #line 69 "D:\Project\pcollar640\HT66F0185\HT66F0185.c"
  69  0045  3494        	clr [20].1
  70  0046              #line 70 "D:\Project\pcollar640\HT66F0185\HT66F0185.c"
  70  0046  3725        	clr [37].6
  71  0047              #line 71 "D:\Project\pcollar640\HT66F0185\HT66F0185.c"
  71  0047  3441        	clr [65].0
  72  0048              #line 72 "D:\Project\pcollar640\HT66F0185\HT66F0185.c"
  72  0048  34C1        	clr [65].1
  73  0049              #line 73 "D:\Project\pcollar640\HT66F0185\HT66F0185.c"
  73  0049  3641        	clr [65].4
  74  004A              #line 74 "D:\Project\pcollar640\HT66F0185\HT66F0185.c"
  74  004A  3594        	clr [20].3
  75  004B              #line 75 "D:\Project\pcollar640\HT66F0185\HT66F0185.c"
  75  004B  074A        	mov a,[74]
  75  004C  0080     E  	mov ra,a
  75  004D  0F0F        	mov a,15
  75  004E  0580     E  	orm a,ra
  75  004F  0700     E  	mov a,ra
  75  0050  00CA        	mov [74],a
  76  0051              #line 76 "D:\Project\pcollar640\HT66F0185\HT66F0185.c"
  76  0051  074B        	mov a,[75]
  76  0052  0080     E  	mov ra,a
  76  0053  0F48        	mov a,72
  76  0054  0580     E  	orm a,ra
  76  0055  0700     E  	mov a,ra
  76  0056  00CB        	mov [75],a
  77  0057              #line 77 "D:\Project\pcollar640\HT66F0185\HT66F0185.c"
  77  0057  074D        	mov a,[77]
  77  0058  0080     E  	mov ra,a
  77  0059  0F60        	mov a,96
  77  005A  0580     E  	orm a,ra
  77  005B  0700     E  	mov a,ra
  77  005C  00CD        	mov [77],a
  78  005D              #line 78 "D:\Project\pcollar640\HT66F0185\HT66F0185.c"
  78  005D  074E        	mov a,[78]
  78  005E  0080     E  	mov ra,a
  78  005F  3000     E  	set ra.0
  78  0060  0700     E  	mov a,ra
  78  0061  00CE        	mov [78],a
文件：HT66F0185.c  编译器版本 HGASM 0202 页次10

  79  0062              #line 79 "D:\Project\pcollar640\HT66F0185\HT66F0185.c"
  79  0062  0700     R  	mov a,_a_lcd_count[0]
  79  0063  0080     E  	mov ra,a
  79  0064  1F00     E  	clr rb
  79  0065  0700     E  	mov a,ra
  79  0066  0500     E  	or a,rb
  79  0067  3D0A        	sz z
  79  0068  2800     R  	jmp _L7
  79  0069  0700     E  	mov a,ra
  79  006A  0C01        	xor a,1
  79  006B  0500     E  	or a,rb
  79  006C  3D0A        	sz z
  79  006D  2800     R  	jmp _L8
  79  006E  0700     E  	mov a,ra
  79  006F  0C02        	xor a,2
  79  0070  0500     E  	or a,rb
  79  0071  3D0A        	sz z
  79  0072  2800     R  	jmp _L9
  79  0073  0700     E  	mov a,ra
  79  0074  0C03        	xor a,3
  79  0075  0500     E  	or a,rb
  79  0076  3D0A        	sz z
  79  0077  2800     R  	jmp _L10
  79  0078  0700     E  	mov a,ra
  79  0079  0C04        	xor a,4
  79  007A  0500     E  	or a,rb
  79  007B  3D0A        	sz z
  79  007C  2800     R  	jmp _L11
  79  007D  0700     E  	mov a,ra
  79  007E  0C05        	xor a,5
  79  007F  0500     E  	or a,rb
  79  0080  3D0A        	sz z
  79  0081  2800     R  	jmp _L12
  79  0082  0700     E  	mov a,ra
  79  0083  0C06        	xor a,6
  79  0084  0500     E  	or a,rb
  79  0085  3D0A        	sz z
  79  0086  2800     R  	jmp _L13
  79  0087  0700     E  	mov a,ra
  79  0088  0C07        	xor a,7
  79  0089  0500     E  	or a,rb
  79  008A  3D0A        	sz z
  79  008B  2800     R  	jmp _L14
  79  008C  2800     R  	jmp _L1
  79  008D              _L7:
  82  008D              #line 82 "D:\Project\pcollar640\HT66F0185\HT66F0185.c"
  82  008D  37CA        	clr [74].7
  83  008E              #line 83 "D:\Project\pcollar640\HT66F0185\HT66F0185.c"
  83  008E  0700     R  	mov a,_lcd_data[0]
  83  008F  0080     E  	mov ra,a
  83  0090  1F00     E  	clr rb
  83  0091  0F10        	mov a,16  
  83  0092  0680     E  	andm a,ra  
  83  0093  0F00        	mov a,0  
  83  0094  0680     E  	andm a,rb
  83  0095  0700     E  	mov a,ra
  83  0096  0500     E  	or a,rb
  83  0097  3D0A        	sz z
  83  0098  2800     R  	jmp _L15
  83  0099  374D        	clr [77].6
文件：HT66F0185.c  编译器版本 HGASM 0202 页次11

  83  009A  34C1        	clr [65].1
  83  009B              _L15:
  84  009B              #line 84 "D:\Project\pcollar640\HT66F0185\HT66F0185.c"
  84  009B  0700     R  	mov a,_lcd_data[0]
  84  009C  0080     E  	mov ra,a
  84  009D  1F00     E  	clr rb
  84  009E  0F01        	mov a,1  
  84  009F  0680     E  	andm a,ra  
  84  00A0  0F00        	mov a,0  
  84  00A1  0680     E  	andm a,rb
  84  00A2  0700     E  	mov a,ra
  84  00A3  0500     E  	or a,rb
  84  00A4  3D0A        	sz z
  84  00A5  2800     R  	jmp _L16
  84  00A6  344E        	clr [78].0
  84  00A7  3641        	clr [65].4
  84  00A8              _L16:
  85  00A8              #line 85 "D:\Project\pcollar640\HT66F0185\HT66F0185.c"
  85  00A8  0700     R  	mov a,_lcd_data[1]
  85  00A9  0080     E  	mov ra,a
  85  00AA  1F00     E  	clr rb
  85  00AB  0F10        	mov a,16  
  85  00AC  0680     E  	andm a,ra  
  85  00AD  0F00        	mov a,0  
  85  00AE  0680     E  	andm a,rb
  85  00AF  0700     E  	mov a,ra
  85  00B0  0500     E  	or a,rb
  85  00B1  3D0A        	sz z
  85  00B2  2800     R  	jmp _L17
  85  00B3  35CA        	clr [74].3
  85  00B4  3594        	clr [20].3
  85  00B5              _L17:
  86  00B5              #line 86 "D:\Project\pcollar640\HT66F0185\HT66F0185.c"
  86  00B5  0700     R  	mov a,_lcd_data[1]
  86  00B6  0080     E  	mov ra,a
  86  00B7  1F00     E  	clr rb
  86  00B8  0F01        	mov a,1  
  86  00B9  0680     E  	andm a,ra  
  86  00BA  0F00        	mov a,0  
  86  00BB  0680     E  	andm a,rb
  86  00BC  0700     E  	mov a,ra
  86  00BD  0500     E  	or a,rb
  86  00BE  3D0A        	sz z
  86  00BF  2800     R  	jmp _L18
  86  00C0  36CD        	clr [77].5
  86  00C1  3441        	clr [65].0
  86  00C2              _L18:
  87  00C2              #line 87 "D:\Project\pcollar640\HT66F0185\HT66F0185.c"
  87  00C2  344A        	clr [74].0
  87  00C3  3141        	set [65].2
  88  00C4              #line 88 "D:\Project\pcollar640\HT66F0185\HT66F0185.c"
  88  00C4  2800     R  	jmp _L6
  88  00C5              _L8:
  90  00C5              #line 90 "D:\Project\pcollar640\HT66F0185\HT66F0185.c"
  90  00C5  33CA        	set [74].7
  91  00C6              #line 91 "D:\Project\pcollar640\HT66F0185\HT66F0185.c"
  91  00C6  0700     R  	mov a,_lcd_data[0]
  91  00C7  0080     E  	mov ra,a
  91  00C8  1F00     E  	clr rb
  91  00C9  0F10        	mov a,16  
文件：HT66F0185.c  编译器版本 HGASM 0202 页次12

  91  00CA  0680     E  	andm a,ra  
  91  00CB  0F00        	mov a,0  
  91  00CC  0680     E  	andm a,rb
  91  00CD  0700     E  	mov a,ra
  91  00CE  0500     E  	or a,rb
  91  00CF  3D0A        	sz z
  91  00D0  2800     R  	jmp _L19
  91  00D1  374D        	clr [77].6
  91  00D2  30C1        	set [65].1
  91  00D3              _L19:
  92  00D3              #line 92 "D:\Project\pcollar640\HT66F0185\HT66F0185.c"
  92  00D3  0700     R  	mov a,_lcd_data[0]
  92  00D4  0080     E  	mov ra,a
  92  00D5  1F00     E  	clr rb
  92  00D6  0F01        	mov a,1  
  92  00D7  0680     E  	andm a,ra  
  92  00D8  0F00        	mov a,0  
  92  00D9  0680     E  	andm a,rb
  92  00DA  0700     E  	mov a,ra
  92  00DB  0500     E  	or a,rb
  92  00DC  3D0A        	sz z
  92  00DD  2800     R  	jmp _L20
  92  00DE  344E        	clr [78].0
  92  00DF  3241        	set [65].4
  92  00E0              _L20:
  93  00E0              #line 93 "D:\Project\pcollar640\HT66F0185\HT66F0185.c"
  93  00E0  0700     R  	mov a,_lcd_data[1]
  93  00E1  0080     E  	mov ra,a
  93  00E2  1F00     E  	clr rb
  93  00E3  0F10        	mov a,16  
  93  00E4  0680     E  	andm a,ra  
  93  00E5  0F00        	mov a,0  
  93  00E6  0680     E  	andm a,rb
  93  00E7  0700     E  	mov a,ra
  93  00E8  0500     E  	or a,rb
  93  00E9  3D0A        	sz z
  93  00EA  2800     R  	jmp _L21
  93  00EB  35CA        	clr [74].3
  93  00EC  3194        	set [20].3
  93  00ED              _L21:
  94  00ED              #line 94 "D:\Project\pcollar640\HT66F0185\HT66F0185.c"
  94  00ED  0700     R  	mov a,_lcd_data[1]
  94  00EE  0080     E  	mov ra,a
  94  00EF  1F00     E  	clr rb
  94  00F0  0F01        	mov a,1  
  94  00F1  0680     E  	andm a,ra  
  94  00F2  0F00        	mov a,0  
  94  00F3  0680     E  	andm a,rb
  94  00F4  0700     E  	mov a,ra
  94  00F5  0500     E  	or a,rb
  94  00F6  3D0A        	sz z
  94  00F7  2800     R  	jmp _L22
  94  00F8  36CD        	clr [77].5
  94  00F9  3041        	set [65].0
  94  00FA              _L22:
  95  00FA              #line 95 "D:\Project\pcollar640\HT66F0185\HT66F0185.c"
  95  00FA  344A        	clr [74].0
  95  00FB  3541        	clr [65].2
  96  00FC              #line 96 "D:\Project\pcollar640\HT66F0185\HT66F0185.c"
  96  00FC  2800     R  	jmp _L6
文件：HT66F0185.c  编译器版本 HGASM 0202 页次13

  96  00FD              _L9:
  98  00FD              #line 98 "D:\Project\pcollar640\HT66F0185\HT66F0185.c"
  98  00FD  37CA        	clr [74].7
  99  00FE              #line 99 "D:\Project\pcollar640\HT66F0185\HT66F0185.c"
  99  00FE  0700     R  	mov a,_lcd_data[0]
  99  00FF  0080     E  	mov ra,a
  99  0100  1F00     E  	clr rb
  99  0101  0F20        	mov a,32  
  99  0102  0680     E  	andm a,ra  
  99  0103  0F00        	mov a,0  
  99  0104  0680     E  	andm a,rb
  99  0105  0700     E  	mov a,ra
  99  0106  0500     E  	or a,rb
  99  0107  3D0A        	sz z
  99  0108  2800     R  	jmp _L23
  99  0109  374D        	clr [77].6
  99  010A  34C1        	clr [65].1
  99  010B              _L23:
 100  010B              #line 100 "D:\Project\pcollar640\HT66F0185\HT66F0185.c"
 100  010B  0700     R  	mov a,_lcd_data[0]
 100  010C  0080     E  	mov ra,a
 100  010D  1F00     E  	clr rb
 100  010E  0F02        	mov a,2  
 100  010F  0680     E  	andm a,ra  
 100  0110  0F00        	mov a,0  
 100  0111  0680     E  	andm a,rb
 100  0112  0700     E  	mov a,ra
 100  0113  0500     E  	or a,rb
 100  0114  3D0A        	sz z
 100  0115  2800     R  	jmp _L24
 100  0116  344E        	clr [78].0
 100  0117  3641        	clr [65].4
 100  0118              _L24:
 101  0118              #line 101 "D:\Project\pcollar640\HT66F0185\HT66F0185.c"
 101  0118  0700     R  	mov a,_lcd_data[1]
 101  0119  0080     E  	mov ra,a
 101  011A  1F00     E  	clr rb
 101  011B  0F20        	mov a,32  
 101  011C  0680     E  	andm a,ra  
 101  011D  0F00        	mov a,0  
 101  011E  0680     E  	andm a,rb
 101  011F  0700     E  	mov a,ra
 101  0120  0500     E  	or a,rb
 101  0121  3D0A        	sz z
 101  0122  2800     R  	jmp _L25
 101  0123  35CA        	clr [74].3
 101  0124  3594        	clr [20].3
 101  0125              _L25:
 102  0125              #line 102 "D:\Project\pcollar640\HT66F0185\HT66F0185.c"
 102  0125  0700     R  	mov a,_lcd_data[1]
 102  0126  0080     E  	mov ra,a
 102  0127  1F00     E  	clr rb
 102  0128  0F02        	mov a,2  
 102  0129  0680     E  	andm a,ra  
 102  012A  0F00        	mov a,0  
 102  012B  0680     E  	andm a,rb
 102  012C  0700     E  	mov a,ra
 102  012D  0500     E  	or a,rb
 102  012E  3D0A        	sz z
 102  012F  2800     R  	jmp _L26
文件：HT66F0185.c  编译器版本 HGASM 0202 页次14

 102  0130  36CD        	clr [77].5
 102  0131  3441        	clr [65].0
 102  0132              _L26:
 103  0132              #line 103 "D:\Project\pcollar640\HT66F0185\HT66F0185.c"
 103  0132  34CA        	clr [74].1
 103  0133  32C1        	set [65].5
 104  0134              #line 104 "D:\Project\pcollar640\HT66F0185\HT66F0185.c"
 104  0134  2800     R  	jmp _L6
 104  0135              _L10:
 106  0135              #line 106 "D:\Project\pcollar640\HT66F0185\HT66F0185.c"
 106  0135  33CA        	set [74].7
 107  0136              #line 107 "D:\Project\pcollar640\HT66F0185\HT66F0185.c"
 107  0136  0700     R  	mov a,_lcd_data[0]
 107  0137  0080     E  	mov ra,a
 107  0138  1F00     E  	clr rb
 107  0139  0F20        	mov a,32  
 107  013A  0680     E  	andm a,ra  
 107  013B  0F00        	mov a,0  
 107  013C  0680     E  	andm a,rb
 107  013D  0700     E  	mov a,ra
 107  013E  0500     E  	or a,rb
 107  013F  3D0A        	sz z
 107  0140  2800     R  	jmp _L27
 107  0141  374D        	clr [77].6
 107  0142  30C1        	set [65].1
 107  0143              _L27:
 108  0143              #line 108 "D:\Project\pcollar640\HT66F0185\HT66F0185.c"
 108  0143  0700     R  	mov a,_lcd_data[0]
 108  0144  0080     E  	mov ra,a
 108  0145  1F00     E  	clr rb
 108  0146  0F02        	mov a,2  
 108  0147  0680     E  	andm a,ra  
 108  0148  0F00        	mov a,0  
 108  0149  0680     E  	andm a,rb
 108  014A  0700     E  	mov a,ra
 108  014B  0500     E  	or a,rb
 108  014C  3D0A        	sz z
 108  014D  2800     R  	jmp _L28
 108  014E  344E        	clr [78].0
 108  014F  3241        	set [65].4
 108  0150              _L28:
 109  0150              #line 109 "D:\Project\pcollar640\HT66F0185\HT66F0185.c"
 109  0150  0700     R  	mov a,_lcd_data[1]
 109  0151  0080     E  	mov ra,a
 109  0152  1F00     E  	clr rb
 109  0153  0F20        	mov a,32  
 109  0154  0680     E  	andm a,ra  
 109  0155  0F00        	mov a,0  
 109  0156  0680     E  	andm a,rb
 109  0157  0700     E  	mov a,ra
 109  0158  0500     E  	or a,rb
 109  0159  3D0A        	sz z
 109  015A  2800     R  	jmp _L29
 109  015B  35CA        	clr [74].3
 109  015C  3194        	set [20].3
 109  015D              _L29:
 110  015D              #line 110 "D:\Project\pcollar640\HT66F0185\HT66F0185.c"
 110  015D  0700     R  	mov a,_lcd_data[1]
 110  015E  0080     E  	mov ra,a
 110  015F  1F00     E  	clr rb
文件：HT66F0185.c  编译器版本 HGASM 0202 页次15

 110  0160  0F02        	mov a,2  
 110  0161  0680     E  	andm a,ra  
 110  0162  0F00        	mov a,0  
 110  0163  0680     E  	andm a,rb
 110  0164  0700     E  	mov a,ra
 110  0165  0500     E  	or a,rb
 110  0166  3D0A        	sz z
 110  0167  2800     R  	jmp _L30
 110  0168  36CD        	clr [77].5
 110  0169  3041        	set [65].0
 110  016A              _L30:
 111  016A              #line 111 "D:\Project\pcollar640\HT66F0185\HT66F0185.c"
 111  016A  34CA        	clr [74].1
 111  016B  36C1        	clr [65].5
 112  016C              #line 112 "D:\Project\pcollar640\HT66F0185\HT66F0185.c"
 112  016C  2800     R  	jmp _L6
 112  016D              _L11:
 114  016D              #line 114 "D:\Project\pcollar640\HT66F0185\HT66F0185.c"
 114  016D  37CA        	clr [74].7
 115  016E              #line 115 "D:\Project\pcollar640\HT66F0185\HT66F0185.c"
 115  016E  0700     R  	mov a,_lcd_data[0]
 115  016F  0080     E  	mov ra,a
 115  0170  1F00     E  	clr rb
 115  0171  0F40        	mov a,64  
 115  0172  0680     E  	andm a,ra  
 115  0173  0F00        	mov a,0  
 115  0174  0680     E  	andm a,rb
 115  0175  0700     E  	mov a,ra
 115  0176  0500     E  	or a,rb
 115  0177  3D0A        	sz z
 115  0178  2800     R  	jmp _L31
 115  0179  374D        	clr [77].6
 115  017A  34C1        	clr [65].1
 115  017B              _L31:
 116  017B              #line 116 "D:\Project\pcollar640\HT66F0185\HT66F0185.c"
 116  017B  0700     R  	mov a,_lcd_data[0]
 116  017C  0080     E  	mov ra,a
 116  017D  1F00     E  	clr rb
 116  017E  0F04        	mov a,4  
 116  017F  0680     E  	andm a,ra  
 116  0180  0F00        	mov a,0  
 116  0181  0680     E  	andm a,rb
 116  0182  0700     E  	mov a,ra
 116  0183  0500     E  	or a,rb
 116  0184  3D0A        	sz z
 116  0185  2800     R  	jmp _L32
 116  0186  344E        	clr [78].0
 116  0187  3641        	clr [65].4
 116  0188              _L32:
 117  0188              #line 117 "D:\Project\pcollar640\HT66F0185\HT66F0185.c"
 117  0188  0700     R  	mov a,_lcd_data[1]
 117  0189  0080     E  	mov ra,a
 117  018A  1F00     E  	clr rb
 117  018B  0F40        	mov a,64  
 117  018C  0680     E  	andm a,ra  
 117  018D  0F00        	mov a,0  
 117  018E  0680     E  	andm a,rb
 117  018F  0700     E  	mov a,ra
 117  0190  0500     E  	or a,rb
 117  0191  3D0A        	sz z
文件：HT66F0185.c  编译器版本 HGASM 0202 页次16

 117  0192  2800     R  	jmp _L33
 117  0193  35CA        	clr [74].3
 117  0194  3594        	clr [20].3
 117  0195              _L33:
 118  0195              #line 118 "D:\Project\pcollar640\HT66F0185\HT66F0185.c"
 118  0195  0700     R  	mov a,_lcd_data[1]
 118  0196  0080     E  	mov ra,a
 118  0197  1F00     E  	clr rb
 118  0198  0F04        	mov a,4  
 118  0199  0680     E  	andm a,ra  
 118  019A  0F00        	mov a,0  
 118  019B  0680     E  	andm a,rb
 118  019C  0700     E  	mov a,ra
 118  019D  0500     E  	or a,rb
 118  019E  3D0A        	sz z
 118  019F  2800     R  	jmp _L34
 118  01A0  36CD        	clr [77].5
 118  01A1  3441        	clr [65].0
 118  01A2              _L34:
 119  01A2              #line 119 "D:\Project\pcollar640\HT66F0185\HT66F0185.c"
 119  01A2  354A        	clr [74].2
 119  01A3  3094        	set [20].1
 120  01A4              #line 120 "D:\Project\pcollar640\HT66F0185\HT66F0185.c"
 120  01A4  2800     R  	jmp _L6
 120  01A5              _L12:
 122  01A5              #line 122 "D:\Project\pcollar640\HT66F0185\HT66F0185.c"
 122  01A5  33CA        	set [74].7
 123  01A6              #line 123 "D:\Project\pcollar640\HT66F0185\HT66F0185.c"
 123  01A6  0700     R  	mov a,_lcd_data[0]
 123  01A7  0080     E  	mov ra,a
 123  01A8  1F00     E  	clr rb
 123  01A9  0F40        	mov a,64  
 123  01AA  0680     E  	andm a,ra  
 123  01AB  0F00        	mov a,0  
 123  01AC  0680     E  	andm a,rb
 123  01AD  0700     E  	mov a,ra
 123  01AE  0500     E  	or a,rb
 123  01AF  3D0A        	sz z
 123  01B0  2800     R  	jmp _L35
 123  01B1  374D        	clr [77].6
 123  01B2  30C1        	set [65].1
 123  01B3              _L35:
 124  01B3              #line 124 "D:\Project\pcollar640\HT66F0185\HT66F0185.c"
 124  01B3  0700     R  	mov a,_lcd_data[0]
 124  01B4  0080     E  	mov ra,a
 124  01B5  1F00     E  	clr rb
 124  01B6  0F04        	mov a,4  
 124  01B7  0680     E  	andm a,ra  
 124  01B8  0F00        	mov a,0  
 124  01B9  0680     E  	andm a,rb
 124  01BA  0700     E  	mov a,ra
 124  01BB  0500     E  	or a,rb
 124  01BC  3D0A        	sz z
 124  01BD  2800     R  	jmp _L36
 124  01BE  344E        	clr [78].0
 124  01BF  3241        	set [65].4
 124  01C0              _L36:
 125  01C0              #line 125 "D:\Project\pcollar640\HT66F0185\HT66F0185.c"
 125  01C0  0700     R  	mov a,_lcd_data[1]
 125  01C1  0080     E  	mov ra,a
文件：HT66F0185.c  编译器版本 HGASM 0202 页次17

 125  01C2  1F00     E  	clr rb
 125  01C3  0F40        	mov a,64  
 125  01C4  0680     E  	andm a,ra  
 125  01C5  0F00        	mov a,0  
 125  01C6  0680     E  	andm a,rb
 125  01C7  0700     E  	mov a,ra
 125  01C8  0500     E  	or a,rb
 125  01C9  3D0A        	sz z
 125  01CA  2800     R  	jmp _L37
 125  01CB  35CA        	clr [74].3
 125  01CC  3194        	set [20].3
 125  01CD              _L37:
 126  01CD              #line 126 "D:\Project\pcollar640\HT66F0185\HT66F0185.c"
 126  01CD  0700     R  	mov a,_lcd_data[1]
 126  01CE  0080     E  	mov ra,a
 126  01CF  1F00     E  	clr rb
 126  01D0  0F04        	mov a,4  
 126  01D1  0680     E  	andm a,ra  
 126  01D2  0F00        	mov a,0  
 126  01D3  0680     E  	andm a,rb
 126  01D4  0700     E  	mov a,ra
 126  01D5  0500     E  	or a,rb
 126  01D6  3D0A        	sz z
 126  01D7  2800     R  	jmp _L38
 126  01D8  36CD        	clr [77].5
 126  01D9  3041        	set [65].0
 126  01DA              _L38:
 127  01DA              #line 127 "D:\Project\pcollar640\HT66F0185\HT66F0185.c"
 127  01DA  354A        	clr [74].2
 127  01DB  3494        	clr [20].1
 128  01DC              #line 128 "D:\Project\pcollar640\HT66F0185\HT66F0185.c"
 128  01DC  2800     R  	jmp _L6
 128  01DD              _L13:
 130  01DD              #line 130 "D:\Project\pcollar640\HT66F0185\HT66F0185.c"
 130  01DD  37CA        	clr [74].7
 131  01DE              #line 131 "D:\Project\pcollar640\HT66F0185\HT66F0185.c"
 131  01DE  0700     R  	mov a,_lcd_data[0]
 131  01DF  0080     E  	mov ra,a
 131  01E0  3800     E  	snz ra.7
 131  01E1  2800     R  	jmp _L39
 131  01E2  374D        	clr [77].6
 131  01E3  34C1        	clr [65].1
 131  01E4              _L39:
 132  01E4              #line 132 "D:\Project\pcollar640\HT66F0185\HT66F0185.c"
 132  01E4  0700     R  	mov a,_lcd_data[0]
 132  01E5  0080     E  	mov ra,a
 132  01E6  1F00     E  	clr rb
 132  01E7  0F08        	mov a,8  
 132  01E8  0680     E  	andm a,ra  
 132  01E9  0F00        	mov a,0  
 132  01EA  0680     E  	andm a,rb
 132  01EB  0700     E  	mov a,ra
 132  01EC  0500     E  	or a,rb
 132  01ED  3D0A        	sz z
 132  01EE  2800     R  	jmp _L40
 132  01EF  344E        	clr [78].0
 132  01F0  3641        	clr [65].4
 132  01F1              _L40:
 133  01F1              #line 133 "D:\Project\pcollar640\HT66F0185\HT66F0185.c"
 133  01F1  0700     R  	mov a,_lcd_data[1]
文件：HT66F0185.c  编译器版本 HGASM 0202 页次18

 133  01F2  0080     E  	mov ra,a
 133  01F3  3800     E  	snz ra.7
 133  01F4  2800     R  	jmp _L41
 133  01F5  35CA        	clr [74].3
 133  01F6  3594        	clr [20].3
 133  01F7              _L41:
 134  01F7              #line 134 "D:\Project\pcollar640\HT66F0185\HT66F0185.c"
 134  01F7  0700     R  	mov a,_lcd_data[1]
 134  01F8  0080     E  	mov ra,a
 134  01F9  1F00     E  	clr rb
 134  01FA  0F08        	mov a,8  
 134  01FB  0680     E  	andm a,ra  
 134  01FC  0F00        	mov a,0  
 134  01FD  0680     E  	andm a,rb
 134  01FE  0700     E  	mov a,ra
 134  01FF  0500     E  	or a,rb
 134  0200  3D0A        	sz z
 134  0201  2800     R  	jmp _L42
 134  0202  36CD        	clr [77].5
 134  0203  3441        	clr [65].0
 134  0204              _L42:
 135  0204              #line 135 "D:\Project\pcollar640\HT66F0185\HT66F0185.c"
 135  0204  374B        	clr [75].6
 135  0205  3325        	set [37].6
 136  0206              #line 136 "D:\Project\pcollar640\HT66F0185\HT66F0185.c"
 136  0206  2800     R  	jmp _L6
 136  0207              _L14:
 138  0207              #line 138 "D:\Project\pcollar640\HT66F0185\HT66F0185.c"
 138  0207  33CA        	set [74].7
 139  0208              #line 139 "D:\Project\pcollar640\HT66F0185\HT66F0185.c"
 139  0208  0700     R  	mov a,_lcd_data[0]
 139  0209  0080     E  	mov ra,a
 139  020A  3800     E  	snz ra.7
 139  020B  2800     R  	jmp _L43
 139  020C  374D        	clr [77].6
 139  020D  30C1        	set [65].1
 139  020E              _L43:
 140  020E              #line 140 "D:\Project\pcollar640\HT66F0185\HT66F0185.c"
 140  020E  0700     R  	mov a,_lcd_data[0]
 140  020F  0080     E  	mov ra,a
 140  0210  1F00     E  	clr rb
 140  0211  0F08        	mov a,8  
 140  0212  0680     E  	andm a,ra  
 140  0213  0F00        	mov a,0  
 140  0214  0680     E  	andm a,rb
 140  0215  0700     E  	mov a,ra
 140  0216  0500     E  	or a,rb
 140  0217  3D0A        	sz z
 140  0218  2800     R  	jmp _L44
 140  0219  344E        	clr [78].0
 140  021A  3241        	set [65].4
 140  021B              _L44:
 141  021B              #line 141 "D:\Project\pcollar640\HT66F0185\HT66F0185.c"
 141  021B  0700     R  	mov a,_lcd_data[1]
 141  021C  0080     E  	mov ra,a
 141  021D  3800     E  	snz ra.7
 141  021E  2800     R  	jmp _L45
 141  021F  35CA        	clr [74].3
 141  0220  3194        	set [20].3
 141  0221              _L45:
文件：HT66F0185.c  编译器版本 HGASM 0202 页次19

 142  0221              #line 142 "D:\Project\pcollar640\HT66F0185\HT66F0185.c"
 142  0221  0700     R  	mov a,_lcd_data[1]
 142  0222  0080     E  	mov ra,a
 142  0223  1F00     E  	clr rb
 142  0224  0F08        	mov a,8  
 142  0225  0680     E  	andm a,ra  
 142  0226  0F00        	mov a,0  
 142  0227  0680     E  	andm a,rb
 142  0228  0700     E  	mov a,ra
 142  0229  0500     E  	or a,rb
 142  022A  3D0A        	sz z
 142  022B  2800     R  	jmp _L46
 142  022C  36CD        	clr [77].5
 142  022D  3041        	set [65].0
 142  022E              _L46:
 143  022E              #line 143 "D:\Project\pcollar640\HT66F0185\HT66F0185.c"
 143  022E  374B        	clr [75].6
 143  022F  3725        	clr [37].6
 144  0230              #line 144 "D:\Project\pcollar640\HT66F0185\HT66F0185.c"
 144  0230              	;nop
 144  0230              _L6:
 144  0230  2800     R  	jmp _L1
 144  0231              _L5:
 149  0231              #line 149 "D:\Project\pcollar640\HT66F0185\HT66F0185.c"
 149  0231  35CA        	clr [74].3
 150  0232              #line 150 "D:\Project\pcollar640\HT66F0185\HT66F0185.c"
 150  0232  3395        	set [21].7
 151  0233              #line 151 "D:\Project\pcollar640\HT66F0185\HT66F0185.c"
 151  0233  3396        	set [22].7
 152  0234              #line 152 "D:\Project\pcollar640\HT66F0185\HT66F0185.c"
 152  0234  334B        	set [75].6
 154  0235              #line 154 "D:\Project\pcollar640\HT66F0185\HT66F0185.c"
 154  0235  0714        	mov a,[20]
 154  0236  0080     E  	mov ra,a
 154  0237  0F80        	mov a,128
 154  0238  0680     E  	andm a,ra
 154  0239  1080     E  	sz ra
 154  023A  2800     R  	jmp _L47
 156  023B              #line 156 "D:\Project\pcollar640\HT66F0185\HT66F0185.c"
 156  023B  1F00     R  	clr _a_k1_high[0]
 157  023C              #line 157 "D:\Project\pcollar640\HT66F0185\HT66F0185.c"
 157  023C  0700     R  	mov a,_f_flag[0]
 157  023D  0080     E  	mov ra,a
 157  023E  0F20        	mov a,32
 157  023F  0680     E  	andm a,ra
 157  0240  1080     E  	sz ra
 157  0241  2800     R  	jmp _L1
 159  0242              #line 159 "D:\Project\pcollar640\HT66F0185\HT66F0185.c"
 159  0242  0700     R  	mov a,_a_k1_low[0]
 159  0243  0080     E  	mov ra,a
 159  0244  1480     E  	inc ra
 159  0245  0700     E  	mov a,ra
 159  0246  0080     R  	mov _a_k1_low[0],a
 160  0247              #line 160 "D:\Project\pcollar640\HT66F0185\HT66F0185.c"
 160  0247  0700     R  	mov a,_a_k1_low[0]
 160  0248  0080     E  	mov ra,a
 160  0249  0F04        	mov a,4
 160  024A  0200     E  	sub a,ra
 160  024B  3C0A        	sz c
 160  024C  2800     R  	jmp _L1
文件：HT66F0185.c  编译器版本 HGASM 0202 页次20

 162  024D              #line 162 "D:\Project\pcollar640\HT66F0185\HT66F0185.c"
 162  024D  1F00     R  	clr _a_k1_low[0]
 163  024E              #line 163 "D:\Project\pcollar640\HT66F0185\HT66F0185.c"
 163  024E  3000     R  	set _f_flag[0].0
 164  024F              #line 164 "D:\Project\pcollar640\HT66F0185\HT66F0185.c"
 164  024F  3000     R  	set _f_flag[0].5
 164  0250  2800     R  	jmp _L1
 164  0251              _L47:
 170  0251              #line 170 "D:\Project\pcollar640\HT66F0185\HT66F0185.c"
 170  0251  1F00     R  	clr _a_k1_low[0]
 171  0252              #line 171 "D:\Project\pcollar640\HT66F0185\HT66F0185.c"
 171  0252  0700     R  	mov a,_f_flag[0]
 171  0253  0080     E  	mov ra,a
 171  0254  0F20        	mov a,32
 171  0255  0680     E  	andm a,ra
 171  0256  1080     E  	sz ra
 171  0257  2800     R  	jmp _LI2
 171  0258  2800     R  	jmp _L1
 171  0259              _LI2:
 173  0259              #line 173 "D:\Project\pcollar640\HT66F0185\HT66F0185.c"
 173  0259  0700     R  	mov a,_a_k1_high[0]
 173  025A  0080     E  	mov ra,a
 173  025B  1480     E  	inc ra
 173  025C  0700     E  	mov a,ra
 173  025D  0080     R  	mov _a_k1_high[0],a
 174  025E              #line 174 "D:\Project\pcollar640\HT66F0185\HT66F0185.c"
 174  025E  0700     R  	mov a,_a_k1_high[0]
 174  025F  0080     E  	mov ra,a
 174  0260  0F04        	mov a,4
 174  0261  0200     E  	sub a,ra
 174  0262  3C0A        	sz c
 174  0263  2800     R  	jmp _L1
 176  0264              #line 176 "D:\Project\pcollar640\HT66F0185\HT66F0185.c"
 176  0264  1F00     R  	clr _a_k1_high[0]
 177  0265              #line 177 "D:\Project\pcollar640\HT66F0185\HT66F0185.c"
 177  0265  3400     R  	clr _f_flag[0].5
 177  0266              _L1:
 177  0266  0700     E  	mov a,r2
 177  0267  008A        	mov status,a
 177  0268  0700     E  	mov a,r1
 177  0269  0004        	reti
 177  026A              _TM1_int endp
 177  026A              
 177  026A              #line 177 "D:\Project\pcollar640\HT66F0185\HT66F0185.c"
 177  026A              #pragma debug scope 1 1
 177  026A              ___pd equ [82]
 177  026A              ___pbc equ [38]
 177  026A              public _FIFO_WRITE
 177  026A              #pragma debug scope 4 1
 189  026A              #line 189 "D:\Project\pcollar640\HT66F0185\HT66F0185.c"
 189  0000              _FIFO_WRITE .section 'code'
 189  0000              _FIFO_WRITE proc
 189  0000  0004[           local _FIFO_WRITE_2 db 4 dup(?)	; 0,4
            00
            ]
 189  0000  0080     R  	mov _FIFO_WRITE_2[3],a
 189  0001              #pragma debug variable 8 4 _FIFO_WRITE_2+3 "len"
 189  0001              #pragma debug variable 8 4 _FIFO_WRITE_2+0 "i"
 189  0001              #pragma debug variable 8 4 _FIFO_WRITE_2+1 "j"
 189  0001              #pragma debug variable 8 4 _FIFO_WRITE_2+2 "data"
文件：HT66F0185.c  编译器版本 HGASM 0202 页次21

 191  0001              #line 191 "D:\Project\pcollar640\HT66F0185\HT66F0185.c"
 191  0001  3152        	set [82].2
 192  0002              #line 192 "D:\Project\pcollar640\HT66F0185\HT66F0185.c"
 192  0002  34D2        	clr [82].1
 193  0003              #line 193 "D:\Project\pcollar640\HT66F0185\HT66F0185.c"
 193  0003  3425        	clr [37].0
 194  0004              #line 194 "D:\Project\pcollar640\HT66F0185\HT66F0185.c"
 194  0004  34A6        	clr [38].1
 195  0005              #line 195 "D:\Project\pcollar640\HT66F0185\HT66F0185.c"
 195  0005  1F00     R  	clr _FIFO_WRITE_2[1]
 195  0006  2800     R  	jmp _L50
 195  0007              _L55:
 197  0007              #line 197 "D:\Project\pcollar640\HT66F0185\HT66F0185.c"
 197  0007  34D2        	clr [82].1
 198  0008              #line 198 "D:\Project\pcollar640\HT66F0185\HT66F0185.c"
 198  0008  0700     R  	mov a,_FIFO_WRITE_2[1]
 198  0009  0080     E  	mov ra,a
 198  000A  1F00     E  	clr rb
 198  000B  0F00     R  	mov a,low offset _a_tx
 198  000C  0380     E  	addm a,ra
 198  000D  0F00     R  	mov a,high offset _a_tx
 198  000E  1380     E  	adcm a,rb
 198  000F  0700     E  	mov a,ra
 198  0010  0083        	mov mp,a
 198  0011  0700     E  	mov a,rb
 198  0012  0081        	mov sbp,a
 198  0013  2000     E  	call _Crom2Prom
 198  0014  0080     R  	mov _FIFO_WRITE_2[2],a
 199  0015              #line 199 "D:\Project\pcollar640\HT66F0185\HT66F0185.c"
 199  0015  1F00     R  	clr _FIFO_WRITE_2[0]
 199  0016  2800     R  	jmp _L51
 199  0017              _L54:
 201  0017              #line 201 "D:\Project\pcollar640\HT66F0185\HT66F0185.c"
 201  0017  3425        	clr [37].0
 202  0018              #line 202 "D:\Project\pcollar640\HT66F0185\HT66F0185.c"
 202  0018  0700     R  	mov a,_FIFO_WRITE_2[2]
 202  0019  0080     E  	mov ra,a
 202  001A  3800     E  	snz ra.7
 202  001B  2800     R  	jmp _L52
 202  001C  30A5        	set [37].1
 202  001D  2800     R  	jmp _L53
 202  001E              _L52:
 203  001E              #line 203 "D:\Project\pcollar640\HT66F0185\HT66F0185.c"
 203  001E  34A5        	clr [37].1
 203  001F              _L53:
 204  001F              #line 204 "D:\Project\pcollar640\HT66F0185\HT66F0185.c"
 204  001F  3025        	set [37].0
 205  0020              #line 205 "D:\Project\pcollar640\HT66F0185\HT66F0185.c"
 205  0020  0700     R  	mov a,_FIFO_WRITE_2[2]
 205  0021  0080     E  	mov ra,a
 205  0022  0700     E  	mov a,ra
 205  0023  0380     E  	addm a,ra
 205  0024  0700     E  	mov a,ra
 205  0025  0080     R  	mov _FIFO_WRITE_2[2],a
 199  0026              #line 199 "D:\Project\pcollar640\HT66F0185\HT66F0185.c"
 199  0026  0700     R  	mov a,_FIFO_WRITE_2[0]
 199  0027  0080     E  	mov ra,a
 199  0028  1400     E  	inca ra
 199  0029  0080     R  	mov _FIFO_WRITE_2[0],a
 199  002A              _L51:
文件：HT66F0185.c  编译器版本 HGASM 0202 页次22

 199  002A  0F07        	mov a,7
 199  002B  0200     R  	sub a,_FIFO_WRITE_2[0]
 199  002C  3C0A        	sz c
 199  002D  2800     R  	jmp _L54
 207  002E              #line 207 "D:\Project\pcollar640\HT66F0185\HT66F0185.c"
 207  002E  3425        	clr [37].0
 208  002F              #line 208 "D:\Project\pcollar640\HT66F0185\HT66F0185.c"
 208  002F              ;# 208 "D:\Project\pcollar640\HT66F0185\HT66F0185.c" 1
 208  002F              	IF 10>263690
 208  002F              ;# 208 "D:\Project\pcollar640\HT66F0185\HT66F0185.c" 1
 208  002F              	ERRMESSAGE 'the value 10of the argument exceeds the maxinum 263690'
 208  002F              	ENDIF
 208  002F              ;# 208 "D:\Project\pcollar640\HT66F0185\HT66F0185.c" 1
 208  002F              	IF 10<0
 208  002F              ;# 208 "D:\Project\pcollar640\HT66F0185\HT66F0185.c" 1
 208  002F              	ERRMESSAGE 'the value 10 of the argument exceeds the mininum 0'
 208  002F              	ENDIF
 208  002F              ;# 208 "D:\Project\pcollar640\HT66F0185\HT66F0185.c" 1
 208  002F              	IF 10==0
 208  002F              ;# 208 "D:\Project\pcollar640\HT66F0185\HT66F0185.c" 1
 208  002F              	JMP $
 208  002F              	ENDIF
 208  002F              ;# 208 "D:\Project\pcollar640\HT66F0185\HT66F0185.c" 1
 208  002F              	IF 10==1
 208  002F              ;# 208 "D:\Project\pcollar640\HT66F0185\HT66F0185.c" 1
 208  002F              	NOP
 208  002F              	ENDIF
 208  002F              ;# 208 "D:\Project\pcollar640\HT66F0185\HT66F0185.c" 1
 208  002F              	IF 10==2
 208  002F              ;# 208 "D:\Project\pcollar640\HT66F0185\HT66F0185.c" 1
 208  002F              	NOP
 208  002F              ;# 208 "D:\Project\pcollar640\HT66F0185\HT66F0185.c" 1
 208  002F              	NOP
 208  002F              	ENDIF
 208  002F              ;# 208 "D:\Project\pcollar640\HT66F0185\HT66F0185.c" 1
 208  002F              	IF 10==3
 208  002F              ;# 208 "D:\Project\pcollar640\HT66F0185\HT66F0185.c" 1
 208  002F              	NOP
 208  002F              ;# 208 "D:\Project\pcollar640\HT66F0185\HT66F0185.c" 1
 208  002F              	NOP
 208  002F              ;# 208 "D:\Project\pcollar640\HT66F0185\HT66F0185.c" 1
 208  002F              	NOP
 208  002F              	ENDIF
 208  002F              ;# 208 "D:\Project\pcollar640\HT66F0185\HT66F0185.c" 1
 208  002F              	IF (10<8) AND (10>3)
 208  002F              ;# 208 "D:\Project\pcollar640\HT66F0185\HT66F0185.c" 1
 208  002F              	CALL __DELAY3 + 7 -10
 208  002F              	ENDIF
 208  002F              ;# 208 "D:\Project\pcollar640\HT66F0185\HT66F0185.c" 1
 208  002F              	IF (10< 0404h) AND (10>7)
 208  002F              ;# 208 "D:\Project\pcollar640\HT66F0185\HT66F0185.c" 1
 208  002F  0F01        	MOV A,10/4-1
 208  0030              ;# 208 "D:\Project\pcollar640\HT66F0185\HT66F0185.c" 1
 208  0030  2000     E  	CALL __DELAYX3 + 3 -(10 MOD 4)
 208  0031              	ENDIF
 208  0031              ;# 208 "D:\Project\pcollar640\HT66F0185\HT66F0185.c" 1
 208  0031              	IF (10< 0x40B) AND (10> 0403h)
 208  0031              ;# 208 "D:\Project\pcollar640\HT66F0185\HT66F0185.c" 1
 208  0031              	MOV A,0 
 208  0031              ;# 208 "D:\Project\pcollar640\HT66F0185\HT66F0185.c" 1
文件：HT66F0185.c  编译器版本 HGASM 0202 页次23

 208  0031              	CALL __DELAYX6 + 0x40a -10
 208  0031              	ENDIF
 208  0031              ;# 208 "D:\Project\pcollar640\HT66F0185\HT66F0185.c" 1
 208  0031              	IF (10 >= 0x40b) AND ((((10-9)%0402h)/4+1)>256)
 208  0031              ;# 208 "D:\Project\pcollar640\HT66F0185\HT66F0185.c" 1
 208  0031              	MOV A,(10-9)/0402h
 208  0031              ;# 208 "D:\Project\pcollar640\HT66F0185\HT66F0185.c" 1
 208  0031              	MOV _builtin_holtek_delay_2,A
 208  0031              ;# 208 "D:\Project\pcollar640\HT66F0185\HT66F0185.c" 1
 208  0031              	MOV A,0
 208  0031              ;# 208 "D:\Project\pcollar640\HT66F0185\HT66F0185.c" 1
 208  0031              	CALL __DELAYY5 +5- (((10-9)%0402h)%6)
 208  0031              	ENDIF
 208  0031              ;# 208 "D:\Project\pcollar640\HT66F0185\HT66F0185.c" 1
 208  0031              	IF (10 >= 0x40b) AND ((((10-9)%0402h)/4+1)<=256)
 208  0031              ;# 208 "D:\Project\pcollar640\HT66F0185\HT66F0185.c" 1
 208  0031              	MOV A,(10-9)/0402h
 208  0031              ;# 208 "D:\Project\pcollar640\HT66F0185\HT66F0185.c" 1
 208  0031              	MOV _builtin_holtek_delay_2,A
 208  0031              ;# 208 "D:\Project\pcollar640\HT66F0185\HT66F0185.c" 1
 208  0031              	MOV A,((10-9)%0402h)/4+1
 208  0031              ;# 208 "D:\Project\pcollar640\HT66F0185\HT66F0185.c" 1
 208  0031              	CALL __DELAYY3 +3-(((10-9)%0402h)%4)
 208  0031              	ENDIF
 209  0031              #line 209 "D:\Project\pcollar640\HT66F0185\HT66F0185.c"
 209  0031  30D2        	set [82].1
 210  0032              #line 210 "D:\Project\pcollar640\HT66F0185\HT66F0185.c"
 210  0032              ;# 210 "D:\Project\pcollar640\HT66F0185\HT66F0185.c" 1
 210  0032              	IF 10>263690
 210  0032              ;# 210 "D:\Project\pcollar640\HT66F0185\HT66F0185.c" 1
 210  0032              	ERRMESSAGE 'the value 10of the argument exceeds the maxinum 263690'
 210  0032              	ENDIF
 210  0032              ;# 210 "D:\Project\pcollar640\HT66F0185\HT66F0185.c" 1
 210  0032              	IF 10<0
 210  0032              ;# 210 "D:\Project\pcollar640\HT66F0185\HT66F0185.c" 1
 210  0032              	ERRMESSAGE 'the value 10 of the argument exceeds the mininum 0'
 210  0032              	ENDIF
 210  0032              ;# 210 "D:\Project\pcollar640\HT66F0185\HT66F0185.c" 1
 210  0032              	IF 10==0
 210  0032              ;# 210 "D:\Project\pcollar640\HT66F0185\HT66F0185.c" 1
 210  0032              	JMP $
 210  0032              	ENDIF
 210  0032              ;# 210 "D:\Project\pcollar640\HT66F0185\HT66F0185.c" 1
 210  0032              	IF 10==1
 210  0032              ;# 210 "D:\Project\pcollar640\HT66F0185\HT66F0185.c" 1
 210  0032              	NOP
 210  0032              	ENDIF
 210  0032              ;# 210 "D:\Project\pcollar640\HT66F0185\HT66F0185.c" 1
 210  0032              	IF 10==2
 210  0032              ;# 210 "D:\Project\pcollar640\HT66F0185\HT66F0185.c" 1
 210  0032              	NOP
 210  0032              ;# 210 "D:\Project\pcollar640\HT66F0185\HT66F0185.c" 1
 210  0032              	NOP
 210  0032              	ENDIF
 210  0032              ;# 210 "D:\Project\pcollar640\HT66F0185\HT66F0185.c" 1
 210  0032              	IF 10==3
 210  0032              ;# 210 "D:\Project\pcollar640\HT66F0185\HT66F0185.c" 1
 210  0032              	NOP
 210  0032              ;# 210 "D:\Project\pcollar640\HT66F0185\HT66F0185.c" 1
 210  0032              	NOP
文件：HT66F0185.c  编译器版本 HGASM 0202 页次24

 210  0032              ;# 210 "D:\Project\pcollar640\HT66F0185\HT66F0185.c" 1
 210  0032              	NOP
 210  0032              	ENDIF
 210  0032              ;# 210 "D:\Project\pcollar640\HT66F0185\HT66F0185.c" 1
 210  0032              	IF (10<8) AND (10>3)
 210  0032              ;# 210 "D:\Project\pcollar640\HT66F0185\HT66F0185.c" 1
 210  0032              	CALL __DELAY3 + 7 -10
 210  0032              	ENDIF
 210  0032              ;# 210 "D:\Project\pcollar640\HT66F0185\HT66F0185.c" 1
 210  0032              	IF (10< 0404h) AND (10>7)
 210  0032              ;# 210 "D:\Project\pcollar640\HT66F0185\HT66F0185.c" 1
 210  0032  0F01        	MOV A,10/4-1
 210  0033              ;# 210 "D:\Project\pcollar640\HT66F0185\HT66F0185.c" 1
 210  0033  2000     E  	CALL __DELAYX3 + 3 -(10 MOD 4)
 210  0034              	ENDIF
 210  0034              ;# 210 "D:\Project\pcollar640\HT66F0185\HT66F0185.c" 1
 210  0034              	IF (10< 0x40B) AND (10> 0403h)
 210  0034              ;# 210 "D:\Project\pcollar640\HT66F0185\HT66F0185.c" 1
 210  0034              	MOV A,0 
 210  0034              ;# 210 "D:\Project\pcollar640\HT66F0185\HT66F0185.c" 1
 210  0034              	CALL __DELAYX6 + 0x40a -10
 210  0034              	ENDIF
 210  0034              ;# 210 "D:\Project\pcollar640\HT66F0185\HT66F0185.c" 1
 210  0034              	IF (10 >= 0x40b) AND ((((10-9)%0402h)/4+1)>256)
 210  0034              ;# 210 "D:\Project\pcollar640\HT66F0185\HT66F0185.c" 1
 210  0034              	MOV A,(10-9)/0402h
 210  0034              ;# 210 "D:\Project\pcollar640\HT66F0185\HT66F0185.c" 1
 210  0034              	MOV _builtin_holtek_delay_2,A
 210  0034              ;# 210 "D:\Project\pcollar640\HT66F0185\HT66F0185.c" 1
 210  0034              	MOV A,0
 210  0034              ;# 210 "D:\Project\pcollar640\HT66F0185\HT66F0185.c" 1
 210  0034              	CALL __DELAYY5 +5- (((10-9)%0402h)%6)
 210  0034              	ENDIF
 210  0034              ;# 210 "D:\Project\pcollar640\HT66F0185\HT66F0185.c" 1
 210  0034              	IF (10 >= 0x40b) AND ((((10-9)%0402h)/4+1)<=256)
 210  0034              ;# 210 "D:\Project\pcollar640\HT66F0185\HT66F0185.c" 1
 210  0034              	MOV A,(10-9)/0402h
 210  0034              ;# 210 "D:\Project\pcollar640\HT66F0185\HT66F0185.c" 1
 210  0034              	MOV _builtin_holtek_delay_2,A
 210  0034              ;# 210 "D:\Project\pcollar640\HT66F0185\HT66F0185.c" 1
 210  0034              	MOV A,((10-9)%0402h)/4+1
 210  0034              ;# 210 "D:\Project\pcollar640\HT66F0185\HT66F0185.c" 1
 210  0034              	CALL __DELAYY3 +3-(((10-9)%0402h)%4)
 210  0034              	ENDIF
 195  0034              #line 195 "D:\Project\pcollar640\HT66F0185\HT66F0185.c"
 195  0034  0700     R  	mov a,_FIFO_WRITE_2[1]
 195  0035  0080     E  	mov ra,a
 195  0036  1400     E  	inca ra
 195  0037  0080     R  	mov _FIFO_WRITE_2[1],a
 195  0038              _L50:
 195  0038  0700     R  	mov a,_FIFO_WRITE_2[1]
 195  0039  0200     R  	sub a,_FIFO_WRITE_2[3]
 195  003A  380A        	snz c
 195  003B  2800     R  	jmp _L55
 212  003C              #line 212 "D:\Project\pcollar640\HT66F0185\HT66F0185.c"
 212  003C  3425        	clr [37].0
 213  003D              #line 213 "D:\Project\pcollar640\HT66F0185\HT66F0185.c"
 213  003D  30D2        	set [82].1
 213  003E  0003        	ret
 213  003F              _FIFO_WRITE endp
文件：HT66F0185.c  编译器版本 HGASM 0202 页次25

 213  003F              #line 213 "D:\Project\pcollar640\HT66F0185\HT66F0185.c"
 213  003F              #pragma debug scope 1 1
 213  003F              public _SPI_WRITE
 213  003F              #pragma debug scope 5 1
 217  003F              #line 217 "D:\Project\pcollar640\HT66F0185\HT66F0185.c"
 217  0000              _SPI_WRITE .section 'code'
 217  0000              _SPI_WRITE proc
 217  0000              public _SPI_WRITE_2
 217  0000  0003[           local _SPI_WRITE_2 db 3 dup(?)	; 1,2
            00
            ]
 217  0000  0080     R  	mov _SPI_WRITE_2[2],a
 217  0001              #pragma debug variable 8 5 _SPI_WRITE_2+2 "address"
 217  0001              #pragma debug variable 8 5 _SPI_WRITE_2+0 "data"
 217  0001              #pragma debug variable 8 5 _SPI_WRITE_2+1 "i"
 219  0001              #line 219 "D:\Project\pcollar640\HT66F0185\HT66F0185.c"
 219  0001  3400     R  	clr _SPI_WRITE_2[2].7
 220  0002              #line 220 "D:\Project\pcollar640\HT66F0185\HT66F0185.c"
 220  0002  30D2        	set [82].1
 221  0003              #line 221 "D:\Project\pcollar640\HT66F0185\HT66F0185.c"
 221  0003  3552        	clr [82].2
 222  0004              #line 222 "D:\Project\pcollar640\HT66F0185\HT66F0185.c"
 222  0004  34A6        	clr [38].1
 223  0005              #line 223 "D:\Project\pcollar640\HT66F0185\HT66F0185.c"
 223  0005  3425        	clr [37].0
 224  0006              #line 224 "D:\Project\pcollar640\HT66F0185\HT66F0185.c"
 224  0006  1F00     R  	clr _SPI_WRITE_2[1]
 224  0007  2800     R  	jmp _L57
 224  0008              _L60:
 226  0008              #line 226 "D:\Project\pcollar640\HT66F0185\HT66F0185.c"
 226  0008  3425        	clr [37].0
 227  0009              #line 227 "D:\Project\pcollar640\HT66F0185\HT66F0185.c"
 227  0009  0700     R  	mov a,_SPI_WRITE_2[2]
 227  000A  0080     E  	mov ra,a
 227  000B  3800     E  	snz ra.7
 227  000C  2800     R  	jmp _L58
 227  000D  30A5        	set [37].1
 227  000E  2800     R  	jmp _L59
 227  000F              _L58:
 228  000F              #line 228 "D:\Project\pcollar640\HT66F0185\HT66F0185.c"
 228  000F  34A5        	clr [37].1
 228  0010              _L59:
 229  0010              #line 229 "D:\Project\pcollar640\HT66F0185\HT66F0185.c"
 229  0010  3025        	set [37].0
 230  0011              #line 230 "D:\Project\pcollar640\HT66F0185\HT66F0185.c"
 230  0011  0700     R  	mov a,_SPI_WRITE_2[2]
 230  0012  0080     E  	mov ra,a
 230  0013  0700     E  	mov a,ra
 230  0014  0380     E  	addm a,ra
 230  0015  0700     E  	mov a,ra
 230  0016  0080     R  	mov _SPI_WRITE_2[2],a
 224  0017              #line 224 "D:\Project\pcollar640\HT66F0185\HT66F0185.c"
 224  0017  0700     R  	mov a,_SPI_WRITE_2[1]
 224  0018  0080     E  	mov ra,a
 224  0019  1400     E  	inca ra
 224  001A  0080     R  	mov _SPI_WRITE_2[1],a
 224  001B              _L57:
 224  001B  0F07        	mov a,7
 224  001C  0200     R  	sub a,_SPI_WRITE_2[1]
 224  001D  3C0A        	sz c
文件：HT66F0185.c  编译器版本 HGASM 0202 页次26

 224  001E  2800     R  	jmp _L60
 232  001F              #line 232 "D:\Project\pcollar640\HT66F0185\HT66F0185.c"
 232  001F  1F00     R  	clr _SPI_WRITE_2[1]
 232  0020  2800     R  	jmp _L61
 232  0021              _L64:
 234  0021              #line 234 "D:\Project\pcollar640\HT66F0185\HT66F0185.c"
 234  0021  3425        	clr [37].0
 235  0022              #line 235 "D:\Project\pcollar640\HT66F0185\HT66F0185.c"
 235  0022  0700     R  	mov a,_SPI_WRITE_2[0]
 235  0023  0080     E  	mov ra,a
 235  0024  3800     E  	snz ra.7
 235  0025  2800     R  	jmp _L62
 235  0026  30A5        	set [37].1
 235  0027  2800     R  	jmp _L63
 235  0028              _L62:
 236  0028              #line 236 "D:\Project\pcollar640\HT66F0185\HT66F0185.c"
 236  0028  34A5        	clr [37].1
 236  0029              _L63:
 237  0029              #line 237 "D:\Project\pcollar640\HT66F0185\HT66F0185.c"
 237  0029  0700     R  	mov a,_SPI_WRITE_2[0]
 237  002A  0080     E  	mov ra,a
 237  002B  0700     E  	mov a,ra
 237  002C  0380     E  	addm a,ra
 237  002D  0700     E  	mov a,ra
 237  002E  0080     R  	mov _SPI_WRITE_2[0],a
 238  002F              #line 238 "D:\Project\pcollar640\HT66F0185\HT66F0185.c"
 238  002F  3025        	set [37].0
 232  0030              #line 232 "D:\Project\pcollar640\HT66F0185\HT66F0185.c"
 232  0030  0700     R  	mov a,_SPI_WRITE_2[1]
 232  0031  0080     E  	mov ra,a
 232  0032  1400     E  	inca ra
 232  0033  0080     R  	mov _SPI_WRITE_2[1],a
 232  0034              _L61:
 232  0034  0F07        	mov a,7
 232  0035  0200     R  	sub a,_SPI_WRITE_2[1]
 232  0036  3C0A        	sz c
 232  0037  2800     R  	jmp _L64
 240  0038              #line 240 "D:\Project\pcollar640\HT66F0185\HT66F0185.c"
 240  0038  3425        	clr [37].0
 241  0039              #line 241 "D:\Project\pcollar640\HT66F0185\HT66F0185.c"
 241  0039              ;# 241 "D:\Project\pcollar640\HT66F0185\HT66F0185.c" 1
 241  0039              	IF 5>263690
 241  0039              ;# 241 "D:\Project\pcollar640\HT66F0185\HT66F0185.c" 1
 241  0039              	ERRMESSAGE 'the value 5of the argument exceeds the maxinum 263690'
 241  0039              	ENDIF
 241  0039              ;# 241 "D:\Project\pcollar640\HT66F0185\HT66F0185.c" 1
 241  0039              	IF 5<0
 241  0039              ;# 241 "D:\Project\pcollar640\HT66F0185\HT66F0185.c" 1
 241  0039              	ERRMESSAGE 'the value 5 of the argument exceeds the mininum 0'
 241  0039              	ENDIF
 241  0039              ;# 241 "D:\Project\pcollar640\HT66F0185\HT66F0185.c" 1
 241  0039              	IF 5==0
 241  0039              ;# 241 "D:\Project\pcollar640\HT66F0185\HT66F0185.c" 1
 241  0039              	JMP $
 241  0039              	ENDIF
 241  0039              ;# 241 "D:\Project\pcollar640\HT66F0185\HT66F0185.c" 1
 241  0039              	IF 5==1
 241  0039              ;# 241 "D:\Project\pcollar640\HT66F0185\HT66F0185.c" 1
 241  0039              	NOP
 241  0039              	ENDIF
文件：HT66F0185.c  编译器版本 HGASM 0202 页次27

 241  0039              ;# 241 "D:\Project\pcollar640\HT66F0185\HT66F0185.c" 1
 241  0039              	IF 5==2
 241  0039              ;# 241 "D:\Project\pcollar640\HT66F0185\HT66F0185.c" 1
 241  0039              	NOP
 241  0039              ;# 241 "D:\Project\pcollar640\HT66F0185\HT66F0185.c" 1
 241  0039              	NOP
 241  0039              	ENDIF
 241  0039              ;# 241 "D:\Project\pcollar640\HT66F0185\HT66F0185.c" 1
 241  0039              	IF 5==3
 241  0039              ;# 241 "D:\Project\pcollar640\HT66F0185\HT66F0185.c" 1
 241  0039              	NOP
 241  0039              ;# 241 "D:\Project\pcollar640\HT66F0185\HT66F0185.c" 1
 241  0039              	NOP
 241  0039              ;# 241 "D:\Project\pcollar640\HT66F0185\HT66F0185.c" 1
 241  0039              	NOP
 241  0039              	ENDIF
 241  0039              ;# 241 "D:\Project\pcollar640\HT66F0185\HT66F0185.c" 1
 241  0039              	IF (5<8) AND (5>3)
 241  0039              ;# 241 "D:\Project\pcollar640\HT66F0185\HT66F0185.c" 1
 241  0039  2000     E  	CALL __DELAY3 + 7 -5
 241  003A              	ENDIF
 241  003A              ;# 241 "D:\Project\pcollar640\HT66F0185\HT66F0185.c" 1
 241  003A              	IF (5< 0404h) AND (5>7)
 241  003A              ;# 241 "D:\Project\pcollar640\HT66F0185\HT66F0185.c" 1
 241  003A              	MOV A,5/4-1
 241  003A              ;# 241 "D:\Project\pcollar640\HT66F0185\HT66F0185.c" 1
 241  003A              	CALL __DELAYX3 + 3 -(5 MOD 4)
 241  003A              	ENDIF
 241  003A              ;# 241 "D:\Project\pcollar640\HT66F0185\HT66F0185.c" 1
 241  003A              	IF (5< 0x40B) AND (5> 0403h)
 241  003A              ;# 241 "D:\Project\pcollar640\HT66F0185\HT66F0185.c" 1
 241  003A              	MOV A,0 
 241  003A              ;# 241 "D:\Project\pcollar640\HT66F0185\HT66F0185.c" 1
 241  003A              	CALL __DELAYX6 + 0x40a -5
 241  003A              	ENDIF
 241  003A              ;# 241 "D:\Project\pcollar640\HT66F0185\HT66F0185.c" 1
 241  003A              	IF (5 >= 0x40b) AND ((((5-9)%0402h)/4+1)>256)
 241  003A              ;# 241 "D:\Project\pcollar640\HT66F0185\HT66F0185.c" 1
 241  003A              	MOV A,(5-9)/0402h
 241  003A              ;# 241 "D:\Project\pcollar640\HT66F0185\HT66F0185.c" 1
 241  003A              	MOV _builtin_holtek_delay_2,A
 241  003A              ;# 241 "D:\Project\pcollar640\HT66F0185\HT66F0185.c" 1
 241  003A              	MOV A,0
 241  003A              ;# 241 "D:\Project\pcollar640\HT66F0185\HT66F0185.c" 1
 241  003A              	CALL __DELAYY5 +5- (((5-9)%0402h)%6)
 241  003A              	ENDIF
 241  003A              ;# 241 "D:\Project\pcollar640\HT66F0185\HT66F0185.c" 1
 241  003A              	IF (5 >= 0x40b) AND ((((5-9)%0402h)/4+1)<=256)
 241  003A              ;# 241 "D:\Project\pcollar640\HT66F0185\HT66F0185.c" 1
 241  003A              	MOV A,(5-9)/0402h
 241  003A              ;# 241 "D:\Project\pcollar640\HT66F0185\HT66F0185.c" 1
 241  003A              	MOV _builtin_holtek_delay_2,A
 241  003A              ;# 241 "D:\Project\pcollar640\HT66F0185\HT66F0185.c" 1
 241  003A              	MOV A,((5-9)%0402h)/4+1
 241  003A              ;# 241 "D:\Project\pcollar640\HT66F0185\HT66F0185.c" 1
 241  003A              	CALL __DELAYY3 +3-(((5-9)%0402h)%4)
 241  003A              	ENDIF
 242  003A              #line 242 "D:\Project\pcollar640\HT66F0185\HT66F0185.c"
 242  003A  34A5        	clr [37].1
 243  003B              #line 243 "D:\Project\pcollar640\HT66F0185\HT66F0185.c"
文件：HT66F0185.c  编译器版本 HGASM 0202 页次28

 243  003B  3152        	set [82].2
 243  003C  0003        	ret
 243  003D              _SPI_WRITE endp
 243  003D              #line 243 "D:\Project\pcollar640\HT66F0185\HT66F0185.c"
 243  003D              #pragma debug scope 1 1
 243  003D              public _SPI_READ
 243  003D              #pragma debug scope 6 1
 247  003D              #line 247 "D:\Project\pcollar640\HT66F0185\HT66F0185.c"
 247  0000              _SPI_READ .section 'code'
 247  0000              _SPI_READ proc
 247  0000  0003[           local _SPI_READ_2 db 3 dup(?)	; 0,3
            00
            ]
 247  0000  0080     R  	mov _SPI_READ_2[2],a
 247  0001              #pragma debug variable 8 6 _SPI_READ_2+2 "address"
 247  0001              #pragma debug variable 8 6 _SPI_READ_2+0 "i"
 247  0001              #pragma debug variable 8 6 _SPI_READ_2+1 "data"
 249  0001              #line 249 "D:\Project\pcollar640\HT66F0185\HT66F0185.c"
 249  0001  30D2        	set [82].1
 250  0002              #line 250 "D:\Project\pcollar640\HT66F0185\HT66F0185.c"
 250  0002  3552        	clr [82].2
 251  0003              #line 251 "D:\Project\pcollar640\HT66F0185\HT66F0185.c"
 251  0003  3425        	clr [37].0
 252  0004              #line 252 "D:\Project\pcollar640\HT66F0185\HT66F0185.c"
 252  0004  34A6        	clr [38].1
 253  0005              #line 253 "D:\Project\pcollar640\HT66F0185\HT66F0185.c"
 253  0005  3000     R  	set _SPI_READ_2[2].7
 254  0006              #line 254 "D:\Project\pcollar640\HT66F0185\HT66F0185.c"
 254  0006  1F00     R  	clr _SPI_READ_2[0]
 254  0007  2800     R  	jmp _L66
 254  0008              _L69:
 256  0008              #line 256 "D:\Project\pcollar640\HT66F0185\HT66F0185.c"
 256  0008  3425        	clr [37].0
 257  0009              #line 257 "D:\Project\pcollar640\HT66F0185\HT66F0185.c"
 257  0009  0700     R  	mov a,_SPI_READ_2[2]
 257  000A  0080     E  	mov ra,a
 257  000B  3800     E  	snz ra.7
 257  000C  2800     R  	jmp _L67
 257  000D  30A5        	set [37].1
 257  000E  2800     R  	jmp _L68
 257  000F              _L67:
 258  000F              #line 258 "D:\Project\pcollar640\HT66F0185\HT66F0185.c"
 258  000F  34A5        	clr [37].1
 258  0010              _L68:
 259  0010              #line 259 "D:\Project\pcollar640\HT66F0185\HT66F0185.c"
 259  0010              ;# 259 "D:\Project\pcollar640\HT66F0185\HT66F0185.c" 1
 259  0010  0000        	nop
 260  0011              #line 260 "D:\Project\pcollar640\HT66F0185\HT66F0185.c"
 260  0011  3025        	set [37].0
 261  0012              #line 261 "D:\Project\pcollar640\HT66F0185\HT66F0185.c"
 261  0012  0700     R  	mov a,_SPI_READ_2[2]
 261  0013  0080     E  	mov ra,a
 261  0014  0700     E  	mov a,ra
 261  0015  0380     E  	addm a,ra
 261  0016  0700     E  	mov a,ra
 261  0017  0080     R  	mov _SPI_READ_2[2],a
 254  0018              #line 254 "D:\Project\pcollar640\HT66F0185\HT66F0185.c"
 254  0018  0700     R  	mov a,_SPI_READ_2[0]
 254  0019  0080     E  	mov ra,a
 254  001A  1400     E  	inca ra
文件：HT66F0185.c  编译器版本 HGASM 0202 页次29

 254  001B  0080     R  	mov _SPI_READ_2[0],a
 254  001C              _L66:
 254  001C  0F07        	mov a,7
 254  001D  0200     R  	sub a,_SPI_READ_2[0]
 254  001E  3C0A        	sz c
 254  001F  2800     R  	jmp _L69
 263  0020              #line 263 "D:\Project\pcollar640\HT66F0185\HT66F0185.c"
 263  0020  30A6        	set [38].1
 264  0021              #line 264 "D:\Project\pcollar640\HT66F0185\HT66F0185.c"
 264  0021  3425        	clr [37].0
 265  0022              #line 265 "D:\Project\pcollar640\HT66F0185\HT66F0185.c"
 265  0022  1F00     R  	clr _SPI_READ_2[1]
 266  0023              #line 266 "D:\Project\pcollar640\HT66F0185\HT66F0185.c"
 266  0023  1F00     R  	clr _SPI_READ_2[0]
 266  0024  2800     R  	jmp _L70
 266  0025              _L72:
 268  0025              #line 268 "D:\Project\pcollar640\HT66F0185\HT66F0185.c"
 268  0025  0700     R  	mov a,_SPI_READ_2[1]
 268  0026  0080     E  	mov ra,a
 268  0027  0700     E  	mov a,ra
 268  0028  0380     E  	addm a,ra
 268  0029  0700     E  	mov a,ra
 268  002A  0080     R  	mov _SPI_READ_2[1],a
 269  002B              #line 269 "D:\Project\pcollar640\HT66F0185\HT66F0185.c"
 269  002B  3025        	set [37].0
 270  002C              #line 270 "D:\Project\pcollar640\HT66F0185\HT66F0185.c"
 270  002C  0725        	mov a,[37]
 270  002D  0080     E  	mov ra,a
 270  002E  0F02        	mov a,2
 270  002F  0680     E  	andm a,ra
 270  0030  1080     E  	sz ra
 270  0031  2800     R  	jmp _LI3
 270  0032  2800     R  	jmp _L71
 270  0033              _LI3:
 270  0033  3000     R  	set _SPI_READ_2[1].0
 270  0034              _L71:
 271  0034              #line 271 "D:\Project\pcollar640\HT66F0185\HT66F0185.c"
 271  0034              ;# 271 "D:\Project\pcollar640\HT66F0185\HT66F0185.c" 1
 271  0034  0000        	nop
 272  0035              #line 272 "D:\Project\pcollar640\HT66F0185\HT66F0185.c"
 272  0035  3425        	clr [37].0
 266  0036              #line 266 "D:\Project\pcollar640\HT66F0185\HT66F0185.c"
 266  0036  0700     R  	mov a,_SPI_READ_2[0]
 266  0037  0080     E  	mov ra,a
 266  0038  1400     E  	inca ra
 266  0039  0080     R  	mov _SPI_READ_2[0],a
 266  003A              _L70:
 266  003A  0F07        	mov a,7
 266  003B  0200     R  	sub a,_SPI_READ_2[0]
 266  003C  3C0A        	sz c
 266  003D  2800     R  	jmp _L72
 274  003E              #line 274 "D:\Project\pcollar640\HT66F0185\HT66F0185.c"
 274  003E  3425        	clr [37].0
 275  003F              #line 275 "D:\Project\pcollar640\HT66F0185\HT66F0185.c"
 275  003F  34A6        	clr [38].1
 276  0040              #line 276 "D:\Project\pcollar640\HT66F0185\HT66F0185.c"
 276  0040  34A5        	clr [37].1
 277  0041              #line 277 "D:\Project\pcollar640\HT66F0185\HT66F0185.c"
 277  0041  3152        	set [82].2
 278  0042              #line 278 "D:\Project\pcollar640\HT66F0185\HT66F0185.c"
文件：HT66F0185.c  编译器版本 HGASM 0202 页次30

 278  0042  0700     R  	mov a,_SPI_READ_2[1]
 278  0043  0080     E  	mov ra,a
 279  0044              #line 279 "D:\Project\pcollar640\HT66F0185\HT66F0185.c"
 279  0044  0700     E  	mov a,ra
 279  0045  0003        	ret
 279  0046              _SPI_READ endp
 279  0046              #line 279 "D:\Project\pcollar640\HT66F0185\HT66F0185.c"
 279  0046              #pragma debug scope 1 1
 279  0046              public _CMT_init
 279  0046              #pragma debug scope 7 1
 282  0046              #line 282 "D:\Project\pcollar640\HT66F0185\HT66F0185.c"
 282  0000              _CMT_init .section 'code'
 282  0000              _CMT_init proc
 282  0000  0002[           local _CMT_init_2 db 2 dup(?)	; 0,2
            00
            ]
 282  0002              #pragma debug variable 8 7 _CMT_init_2+0 "tmp"
 282  0002              #pragma debug variable 8 7 _CMT_init_2+1 "back"
 284  0002              #line 284 "D:\Project\pcollar640\HT66F0185\HT66F0185.c"
 284  0000  1F80     R  	set _SPI_WRITE_2[0]
 284  0001  0F7F        	mov a,127
 284  0002  2000     R  	call _SPI_WRITE
 285  0003              #line 285 "D:\Project\pcollar640\HT66F0185\HT66F0185.c"
 285  0003              ;# 285 "D:\Project\pcollar640\HT66F0185\HT66F0185.c" 1
 285  0003              	IF 40000>263690
 285  0003              ;# 285 "D:\Project\pcollar640\HT66F0185\HT66F0185.c" 1
 285  0003              	ERRMESSAGE 'the value 40000of the argument exceeds the maxinum 263690'
 285  0003              	ENDIF
 285  0003              ;# 285 "D:\Project\pcollar640\HT66F0185\HT66F0185.c" 1
 285  0003              	IF 40000<0
 285  0003              ;# 285 "D:\Project\pcollar640\HT66F0185\HT66F0185.c" 1
 285  0003              	ERRMESSAGE 'the value 40000 of the argument exceeds the mininum 0'
 285  0003              	ENDIF
 285  0003              ;# 285 "D:\Project\pcollar640\HT66F0185\HT66F0185.c" 1
 285  0003              	IF 40000==0
 285  0003              ;# 285 "D:\Project\pcollar640\HT66F0185\HT66F0185.c" 1
 285  0003              	JMP $
 285  0003              	ENDIF
 285  0003              ;# 285 "D:\Project\pcollar640\HT66F0185\HT66F0185.c" 1
 285  0003              	IF 40000==1
 285  0003              ;# 285 "D:\Project\pcollar640\HT66F0185\HT66F0185.c" 1
 285  0003              	NOP
 285  0003              	ENDIF
 285  0003              ;# 285 "D:\Project\pcollar640\HT66F0185\HT66F0185.c" 1
 285  0003              	IF 40000==2
 285  0003              ;# 285 "D:\Project\pcollar640\HT66F0185\HT66F0185.c" 1
 285  0003              	NOP
 285  0003              ;# 285 "D:\Project\pcollar640\HT66F0185\HT66F0185.c" 1
 285  0003              	NOP
 285  0003              	ENDIF
 285  0003              ;# 285 "D:\Project\pcollar640\HT66F0185\HT66F0185.c" 1
 285  0003              	IF 40000==3
 285  0003              ;# 285 "D:\Project\pcollar640\HT66F0185\HT66F0185.c" 1
 285  0003              	NOP
 285  0003              ;# 285 "D:\Project\pcollar640\HT66F0185\HT66F0185.c" 1
 285  0003              	NOP
 285  0003              ;# 285 "D:\Project\pcollar640\HT66F0185\HT66F0185.c" 1
 285  0003              	NOP
 285  0003              	ENDIF
 285  0003              ;# 285 "D:\Project\pcollar640\HT66F0185\HT66F0185.c" 1
文件：HT66F0185.c  编译器版本 HGASM 0202 页次31

 285  0003              	IF (40000<8) AND (40000>3)
 285  0003              ;# 285 "D:\Project\pcollar640\HT66F0185\HT66F0185.c" 1
 285  0003              	CALL __DELAY3 + 7 -40000
 285  0003              	ENDIF
 285  0003              ;# 285 "D:\Project\pcollar640\HT66F0185\HT66F0185.c" 1
 285  0003              	IF (40000< 0404h) AND (40000>7)
 285  0003              ;# 285 "D:\Project\pcollar640\HT66F0185\HT66F0185.c" 1
 285  0003              	MOV A,40000/4-1
 285  0003              ;# 285 "D:\Project\pcollar640\HT66F0185\HT66F0185.c" 1
 285  0003              	CALL __DELAYX3 + 3 -(40000 MOD 4)
 285  0003              	ENDIF
 285  0003              ;# 285 "D:\Project\pcollar640\HT66F0185\HT66F0185.c" 1
 285  0003              	IF (40000< 0x40B) AND (40000> 0403h)
 285  0003              ;# 285 "D:\Project\pcollar640\HT66F0185\HT66F0185.c" 1
 285  0003              	MOV A,0 
 285  0003              ;# 285 "D:\Project\pcollar640\HT66F0185\HT66F0185.c" 1
 285  0003              	CALL __DELAYX6 + 0x40a -40000
 285  0003              	ENDIF
 285  0003              ;# 285 "D:\Project\pcollar640\HT66F0185\HT66F0185.c" 1
 285  0003              	IF (40000 >= 0x40b) AND ((((40000-9)%0402h)/4+1)>256)
 285  0003              ;# 285 "D:\Project\pcollar640\HT66F0185\HT66F0185.c" 1
 285  0003              	MOV A,(40000-9)/0402h
 285  0003              ;# 285 "D:\Project\pcollar640\HT66F0185\HT66F0185.c" 1
 285  0003              	MOV _builtin_holtek_delay_2,A
 285  0003              ;# 285 "D:\Project\pcollar640\HT66F0185\HT66F0185.c" 1
 285  0003              	MOV A,0
 285  0003              ;# 285 "D:\Project\pcollar640\HT66F0185\HT66F0185.c" 1
 285  0003              	CALL __DELAYY5 +5- (((40000-9)%0402h)%6)
 285  0003              	ENDIF
 285  0003              ;# 285 "D:\Project\pcollar640\HT66F0185\HT66F0185.c" 1
 285  0003              	IF (40000 >= 0x40b) AND ((((40000-9)%0402h)/4+1)<=256)
 285  0003              ;# 285 "D:\Project\pcollar640\HT66F0185\HT66F0185.c" 1
 285  0003  0F26        	MOV A,(40000-9)/0402h
 285  0004              ;# 285 "D:\Project\pcollar640\HT66F0185\HT66F0185.c" 1
 285  0004  0080     E  	MOV _builtin_holtek_delay_2,A
 285  0005              ;# 285 "D:\Project\pcollar640\HT66F0185\HT66F0185.c" 1
 285  0005  0FFB        	MOV A,((40000-9)%0402h)/4+1
 285  0006              ;# 285 "D:\Project\pcollar640\HT66F0185\HT66F0185.c" 1
 285  0006  2000     E  	CALL __DELAYY3 +3-(((40000-9)%0402h)%4)
 285  0007              	ENDIF
 286  0007              #line 286 "D:\Project\pcollar640\HT66F0185\HT66F0185.c"
 286  0007  0F02        	mov a,2
 286  0008  0080     R  	mov _SPI_WRITE_2[0],a
 286  0009  0F60        	mov a,96
 286  000A  2000     R  	call _SPI_WRITE
 288  000B              #line 288 "D:\Project\pcollar640\HT66F0185\HT66F0185.c"
 288  000B  0F61        	mov a,97
 288  000C  2000     R  	call _SPI_READ
 288  000D  0080     E  	mov ra,a
 288  000E  0700     E  	mov a,ra
 288  000F  0080     R  	mov _CMT_init_2[0],a
 289  0010              #line 289 "D:\Project\pcollar640\HT66F0185\HT66F0185.c"
 289  0010  3000     R  	set _CMT_init_2[0].4
 290  0011              #line 290 "D:\Project\pcollar640\HT66F0185\HT66F0185.c"
 290  0011  3400     R  	clr _CMT_init_2[0].5
 291  0012              #line 291 "D:\Project\pcollar640\HT66F0185\HT66F0185.c"
 291  0012  0700     R  	mov a,_CMT_init_2[0]
 291  0013  0080     R  	mov _SPI_WRITE_2[0],a
 291  0014  0F61        	mov a,97
 291  0015  2000     R  	call _SPI_WRITE
文件：HT66F0185.c  编译器版本 HGASM 0202 页次32

 293  0016              #line 293 "D:\Project\pcollar640\HT66F0185\HT66F0185.c"
 293  0016  0F62        	mov a,98
 293  0017  2000     R  	call _SPI_READ
 293  0018  0080     E  	mov ra,a
 293  0019  0700     E  	mov a,ra
 293  001A  0080     R  	mov _CMT_init_2[0],a
 294  001B              #line 294 "D:\Project\pcollar640\HT66F0185\HT66F0185.c"
 294  001B  3000     R  	set _CMT_init_2[0].5
 295  001C              #line 295 "D:\Project\pcollar640\HT66F0185\HT66F0185.c"
 295  001C  0700     R  	mov a,_CMT_init_2[0]
 295  001D  0080     R  	mov _SPI_WRITE_2[0],a
 295  001E  0F62        	mov a,98
 295  001F  2000     R  	call _SPI_WRITE
 297  0020              #line 297 "D:\Project\pcollar640\HT66F0185\HT66F0185.c"
 297  0020  0F0D        	mov a,13
 297  0021  2000     R  	call _SPI_READ
 297  0022  0080     E  	mov ra,a
 297  0023  0700     E  	mov a,ra
 297  0024  0080     R  	mov _CMT_init_2[0],a
 298  0025              #line 298 "D:\Project\pcollar640\HT66F0185\HT66F0185.c"
 298  0025  3400     R  	clr _CMT_init_2[0].7
 299  0026              #line 299 "D:\Project\pcollar640\HT66F0185\HT66F0185.c"
 299  0026  3400     R  	clr _CMT_init_2[0].6
 300  0027              #line 300 "D:\Project\pcollar640\HT66F0185\HT66F0185.c"
 300  0027  3400     R  	clr _CMT_init_2[0].5
 301  0028              #line 301 "D:\Project\pcollar640\HT66F0185\HT66F0185.c"
 301  0028  0700     R  	mov a,_CMT_init_2[0]
 301  0029  0080     R  	mov _SPI_WRITE_2[0],a
 301  002A  0F0D        	mov a,13
 301  002B  2000     R  	call _SPI_WRITE
 303  002C              #line 303 "D:\Project\pcollar640\HT66F0185\HT66F0185.c"
 303  002C  1F80     R  	set _SPI_WRITE_2[0]
 303  002D  0F6A        	mov a,106
 303  002E  2000     R  	call _SPI_WRITE
 304  002F              #line 304 "D:\Project\pcollar640\HT66F0185\HT66F0185.c"
 304  002F  1F80     R  	set _SPI_WRITE_2[0]
 304  0030  0F6B        	mov a,107
 304  0031  2000     R  	call _SPI_WRITE
 306  0032              #line 306 "D:\Project\pcollar640\HT66F0185\HT66F0185.c"
 306  0032  1F00     R  	clr _CMT_init_2[0]
 306  0033  2800     R  	jmp _L75
 306  0034              _L76:
 308  0034              #line 308 "D:\Project\pcollar640\HT66F0185\HT66F0185.c"
 308  0034  0700     R  	mov a,_CMT_init_2[0]
 308  0035  0080     E  	mov ra,a
 308  0036  1F00     E  	clr rb
 308  0037  0F00     R  	mov a,low offset _c_cmt_init
 308  0038  0380     E  	addm a,ra
 308  0039  0F00     R  	mov a,high offset _c_cmt_init
 308  003A  1380     E  	adcm a,rb
 308  003B  0700     E  	mov a,ra
 308  003C  0083        	mov mp,a
 308  003D  0700     E  	mov a,rb
 308  003E  0081        	mov sbp,a
 308  003F  2000     E  	call _Crom2Prom
 308  0040  0080     E  	mov ra,a
 308  0041  0700     E  	mov a,ra
 308  0042  0080     R  	mov _SPI_WRITE_2[0],a
 308  0043  0700     R  	mov a,_CMT_init_2[0]
 308  0044  2000     R  	call _SPI_WRITE
文件：HT66F0185.c  编译器版本 HGASM 0202 页次33

 309  0045              #line 309 "D:\Project\pcollar640\HT66F0185\HT66F0185.c"
 309  0045              ;# 309 "D:\Project\pcollar640\HT66F0185\HT66F0185.c" 1
 309  0045  0001        	clr wdt
 306  0046              #line 306 "D:\Project\pcollar640\HT66F0185\HT66F0185.c"
 306  0046  0700     R  	mov a,_CMT_init_2[0]
 306  0047  0080     E  	mov ra,a
 306  0048  1400     E  	inca ra
 306  0049  0080     R  	mov _CMT_init_2[0],a
 306  004A              _L75:
 306  004A  0F5F        	mov a,95
 306  004B  0200     R  	sub a,_CMT_init_2[0]
 306  004C  3C0A        	sz c
 306  004D  2800     R  	jmp _L76
 316  004E              #line 316 "D:\Project\pcollar640\HT66F0185\HT66F0185.c"
 316  004E  0F28        	mov a,40
 316  004F  0080     R  	mov _SPI_WRITE_2[0],a
 316  0050  0F65        	mov a,101
 316  0051  2000     R  	call _SPI_WRITE
 317  0052              #line 317 "D:\Project\pcollar640\HT66F0185\HT66F0185.c"
 317  0052  0F10        	mov a,16
 317  0053  0080     R  	mov _CMT_init_2[0],a
 318  0054              #line 318 "D:\Project\pcollar640\HT66F0185\HT66F0185.c"
 318  0054  3000     R  	set _CMT_init_2[0].5
 319  0055              #line 319 "D:\Project\pcollar640\HT66F0185\HT66F0185.c"
 319  0055  0700     R  	mov a,_CMT_init_2[0]
 319  0056  0080     R  	mov _SPI_WRITE_2[0],a
 319  0057  0F66        	mov a,102
 319  0058  2000     R  	call _SPI_WRITE
 323  0059              #line 323 "D:\Project\pcollar640\HT66F0185\HT66F0185.c"
 323  0059  0F0A        	mov a,10
 323  005A  0080     R  	mov _CMT_init_2[0],a
 324  005B              #line 324 "D:\Project\pcollar640\HT66F0185\HT66F0185.c"
 324  005B  0700     R  	mov a,_CMT_init_2[0]
 324  005C  0080     R  	mov _SPI_WRITE_2[0],a
 324  005D  0F67        	mov a,103
 324  005E  2000     R  	call _SPI_WRITE
 325  005F              #line 325 "D:\Project\pcollar640\HT66F0185\HT66F0185.c"
 325  005F  0F20        	mov a,32
 325  0060  0080     R  	mov _SPI_WRITE_2[0],a
 325  0061  0F68        	mov a,104
 325  0062  2000     R  	call _SPI_WRITE
 326  0063              #line 326 "D:\Project\pcollar640\HT66F0185\HT66F0185.c"
 326  0063  0F10        	mov a,16
 326  0064  0080     R  	mov _SPI_WRITE_2[0],a
 326  0065  0F60        	mov a,96
 326  0066  2000     R  	call _SPI_WRITE
 327  0067              #line 327 "D:\Project\pcollar640\HT66F0185\HT66F0185.c"
 327  0067              ;# 327 "D:\Project\pcollar640\HT66F0185\HT66F0185.c" 1
 327  0067              	IF 60000>263690
 327  0067              ;# 327 "D:\Project\pcollar640\HT66F0185\HT66F0185.c" 1
 327  0067              	ERRMESSAGE 'the value 60000of the argument exceeds the maxinum 263690'
 327  0067              	ENDIF
 327  0067              ;# 327 "D:\Project\pcollar640\HT66F0185\HT66F0185.c" 1
 327  0067              	IF 60000<0
 327  0067              ;# 327 "D:\Project\pcollar640\HT66F0185\HT66F0185.c" 1
 327  0067              	ERRMESSAGE 'the value 60000 of the argument exceeds the mininum 0'
 327  0067              	ENDIF
 327  0067              ;# 327 "D:\Project\pcollar640\HT66F0185\HT66F0185.c" 1
 327  0067              	IF 60000==0
 327  0067              ;# 327 "D:\Project\pcollar640\HT66F0185\HT66F0185.c" 1
文件：HT66F0185.c  编译器版本 HGASM 0202 页次34

 327  0067              	JMP $
 327  0067              	ENDIF
 327  0067              ;# 327 "D:\Project\pcollar640\HT66F0185\HT66F0185.c" 1
 327  0067              	IF 60000==1
 327  0067              ;# 327 "D:\Project\pcollar640\HT66F0185\HT66F0185.c" 1
 327  0067              	NOP
 327  0067              	ENDIF
 327  0067              ;# 327 "D:\Project\pcollar640\HT66F0185\HT66F0185.c" 1
 327  0067              	IF 60000==2
 327  0067              ;# 327 "D:\Project\pcollar640\HT66F0185\HT66F0185.c" 1
 327  0067              	NOP
 327  0067              ;# 327 "D:\Project\pcollar640\HT66F0185\HT66F0185.c" 1
 327  0067              	NOP
 327  0067              	ENDIF
 327  0067              ;# 327 "D:\Project\pcollar640\HT66F0185\HT66F0185.c" 1
 327  0067              	IF 60000==3
 327  0067              ;# 327 "D:\Project\pcollar640\HT66F0185\HT66F0185.c" 1
 327  0067              	NOP
 327  0067              ;# 327 "D:\Project\pcollar640\HT66F0185\HT66F0185.c" 1
 327  0067              	NOP
 327  0067              ;# 327 "D:\Project\pcollar640\HT66F0185\HT66F0185.c" 1
 327  0067              	NOP
 327  0067              	ENDIF
 327  0067              ;# 327 "D:\Project\pcollar640\HT66F0185\HT66F0185.c" 1
 327  0067              	IF (60000<8) AND (60000>3)
 327  0067              ;# 327 "D:\Project\pcollar640\HT66F0185\HT66F0185.c" 1
 327  0067              	CALL __DELAY3 + 7 -60000
 327  0067              	ENDIF
 327  0067              ;# 327 "D:\Project\pcollar640\HT66F0185\HT66F0185.c" 1
 327  0067              	IF (60000< 0404h) AND (60000>7)
 327  0067              ;# 327 "D:\Project\pcollar640\HT66F0185\HT66F0185.c" 1
 327  0067              	MOV A,60000/4-1
 327  0067              ;# 327 "D:\Project\pcollar640\HT66F0185\HT66F0185.c" 1
 327  0067              	CALL __DELAYX3 + 3 -(60000 MOD 4)
 327  0067              	ENDIF
 327  0067              ;# 327 "D:\Project\pcollar640\HT66F0185\HT66F0185.c" 1
 327  0067              	IF (60000< 0x40B) AND (60000> 0403h)
 327  0067              ;# 327 "D:\Project\pcollar640\HT66F0185\HT66F0185.c" 1
 327  0067              	MOV A,0 
 327  0067              ;# 327 "D:\Project\pcollar640\HT66F0185\HT66F0185.c" 1
 327  0067              	CALL __DELAYX6 + 0x40a -60000
 327  0067              	ENDIF
 327  0067              ;# 327 "D:\Project\pcollar640\HT66F0185\HT66F0185.c" 1
 327  0067              	IF (60000 >= 0x40b) AND ((((60000-9)%0402h)/4+1)>256)
 327  0067              ;# 327 "D:\Project\pcollar640\HT66F0185\HT66F0185.c" 1
 327  0067              	MOV A,(60000-9)/0402h
 327  0067              ;# 327 "D:\Project\pcollar640\HT66F0185\HT66F0185.c" 1
 327  0067              	MOV _builtin_holtek_delay_2,A
 327  0067              ;# 327 "D:\Project\pcollar640\HT66F0185\HT66F0185.c" 1
 327  0067              	MOV A,0
 327  0067              ;# 327 "D:\Project\pcollar640\HT66F0185\HT66F0185.c" 1
 327  0067              	CALL __DELAYY5 +5- (((60000-9)%0402h)%6)
 327  0067              	ENDIF
 327  0067              ;# 327 "D:\Project\pcollar640\HT66F0185\HT66F0185.c" 1
 327  0067              	IF (60000 >= 0x40b) AND ((((60000-9)%0402h)/4+1)<=256)
 327  0067              ;# 327 "D:\Project\pcollar640\HT66F0185\HT66F0185.c" 1
 327  0067  0F3A        	MOV A,(60000-9)/0402h
 327  0068              ;# 327 "D:\Project\pcollar640\HT66F0185\HT66F0185.c" 1
 327  0068  0080     E  	MOV _builtin_holtek_delay_2,A
 327  0069              ;# 327 "D:\Project\pcollar640\HT66F0185\HT66F0185.c" 1
文件：HT66F0185.c  编译器版本 HGASM 0202 页次35

 327  0069  0F79        	MOV A,((60000-9)%0402h)/4+1
 327  006A              ;# 327 "D:\Project\pcollar640\HT66F0185\HT66F0185.c" 1
 327  006A  2000     E  	CALL __DELAYY3 +3-(((60000-9)%0402h)%4)
 327  006B              	ENDIF
 329  006B              #line 329 "D:\Project\pcollar640\HT66F0185\HT66F0185.c"
 329  006B  0F48        	mov a,72
 329  006C  2000     R  	call _SPI_READ
 329  006D  0080     E  	mov ra,a
 329  006E  0700     E  	mov a,ra
 329  006F  0080     R  	mov _CMT_init_2[1],a
 330  0070              #line 330 "D:\Project\pcollar640\HT66F0185\HT66F0185.c"
 330  0070  0FAA        	mov a,170
 330  0071  0080     R  	mov _SPI_WRITE_2[0],a
 330  0072  0F48        	mov a,72
 330  0073  2000     R  	call _SPI_WRITE
 331  0074              #line 331 "D:\Project\pcollar640\HT66F0185\HT66F0185.c"
 331  0074  0F48        	mov a,72
 331  0075  2000     R  	call _SPI_READ
 331  0076  0080     E  	mov ra,a
 331  0077  0700     E  	mov a,ra
 331  0078  0080     R  	mov _CMT_init_2[0],a
 332  0079              #line 332 "D:\Project\pcollar640\HT66F0185\HT66F0185.c"
 332  0079  0700     R  	mov a,_CMT_init_2[1]
 332  007A  0080     R  	mov _SPI_WRITE_2[0],a
 332  007B  0F48        	mov a,72
 332  007C  2000     R  	call _SPI_WRITE
 333  007D              #line 333 "D:\Project\pcollar640\HT66F0185\HT66F0185.c"
 333  007D  0700     R  	mov a,_CMT_init_2[0]
 333  007E  0AAA        	sub a,170
 333  007F  3D0A        	sz z
 333  0080  2800     R  	jmp _L74
 333  0081              _L78:
 333  0081  2800     R  	jmp _L78
 333  0082              _L74:
 333  0082  0003        	ret
 333  0083              _CMT_init endp
 333  0083              #line 333 "D:\Project\pcollar640\HT66F0185\HT66F0185.c"
 333  0083              #pragma debug scope 1 1
 333  0083              public _CMT_TX
 333  0083              #pragma debug scope 8 1
 338  0083              #line 338 "D:\Project\pcollar640\HT66F0185\HT66F0185.c"
 338  0000              _CMT_TX .section 'code'
 338  0000              _CMT_TX proc
 338  0000  00              local _CMT_TX_2 db 1 dup(?)	; 0,1
 338  0001              #pragma debug variable 8 8 _CMT_TX_2+0 "tmp"
 340  0001              #line 340 "D:\Project\pcollar640\HT66F0185\HT66F0185.c"
 340  0000  0700     R  	mov a,_f_flag[1]
 340  0001  0080     E  	mov ra,a
 340  0002  0F10        	mov a,16
 340  0003  0680     E  	andm a,ra
 340  0004  1080     E  	sz ra
 340  0005  2800     R  	jmp _LI4
 340  0006  2800     R  	jmp _L80
 340  0007              _LI4:
 342  0007              #line 342 "D:\Project\pcollar640\HT66F0185\HT66F0185.c"
 342  0007  0700     R  	mov a,_f_flag[1]
 342  0008  0080     E  	mov ra,a
 342  0009  0F08        	mov a,8
 342  000A  0680     E  	andm a,ra
 342  000B  1080     E  	sz ra
文件：HT66F0185.c  编译器版本 HGASM 0202 页次36

 342  000C  2800     R  	jmp _L80
 344  000D              #line 344 "D:\Project\pcollar640\HT66F0185\HT66F0185.c"
 344  000D  0700     R  	mov a,_a_tx_count[0]
 344  000E  0080     E  	mov ra,a
 344  000F  1480     E  	inc ra
 344  0010  0700     E  	mov a,ra
 344  0011  0080     R  	mov _a_tx_count[0],a
 345  0012              #line 345 "D:\Project\pcollar640\HT66F0185\HT66F0185.c"
 345  0012  0700     R  	mov a,_a_tx_count[0]
 345  0013  0080     E  	mov rb,a
 345  0014  0700     R  	mov a,_a_set_count[0]
 345  0015  0080     E  	mov ra,a
 345  0016  0700     E  	mov a,rb
 345  0017  0200     E  	sub a,ra
 345  0018  380A        	snz c
 345  0019  2800     R  	jmp _L81
 347  001A              #line 347 "D:\Project\pcollar640\HT66F0185\HT66F0185.c"
 347  001A  3400     R  	clr _f_flag[1].4
 348  001B              #line 348 "D:\Project\pcollar640\HT66F0185\HT66F0185.c"
 348  001B  1F00     R  	clr _a_tx_count[0]
 349  001C              #line 349 "D:\Project\pcollar640\HT66F0185\HT66F0185.c"
 349  001C  0700     R  	mov a,_a_count[0]
 349  001D  0080     E  	mov ra,a
 349  001E  1480     E  	inc ra
 349  001F  0700     E  	mov a,ra
 349  0020  0080     R  	mov _a_count[0],a
 350  0021              #line 350 "D:\Project\pcollar640\HT66F0185\HT66F0185.c"
 350  0021  0700     R  	mov a,_a_count[0]
 350  0022  0080     E  	mov ra,a
 350  0023  0F10        	mov a,16
 350  0024  0200     E  	sub a,ra
 350  0025  3C0A        	sz c
 350  0026  2800     R  	jmp _L82
 352  0027              #line 352 "D:\Project\pcollar640\HT66F0185\HT66F0185.c"
 352  0027  1F00     R  	clr _a_count[0]
 352  0028              _L82:
 355  0028              #line 355 "D:\Project\pcollar640\HT66F0185\HT66F0185.c"
 355  0028  0700     R  	mov a,_a_count[0]
 355  0029  0080     E  	mov ra,a
 355  002A  0F09        	mov a,9
 355  002B  0200     E  	sub a,ra
 355  002C  3C0A        	sz c
 355  002D  2800     R  	jmp _L83
 357  002E              #line 357 "D:\Project\pcollar640\HT66F0185\HT66F0185.c"
 357  002E  0F01        	mov a,1
 357  002F  0080     R  	mov _a_10count[0],a
 357  0030              _L83:
 359  0030              #line 359 "D:\Project\pcollar640\HT66F0185\HT66F0185.c"
 359  0030  0700     R  	mov a,_a_count[0]
 359  0031  0080     E  	mov ra,a
 359  0032  0700     E  	mov a,ra
 359  0033  0080     E  	mov rc,a
 359  0034  1F00     E  	clr rd
 359  0035  0700     R  	mov a,_a_10count[0]
 359  0036  0080     E  	mov ra,a
 359  0037  1F00     E  	clr rb
 359  0038  0700     E  	mov a,ra  
 359  0039  0080     E  	mov _builtin_holtek_mulhi3_2[0],a  
 359  003A  0700     E  	mov a,rb  
 359  003B  0080     E  	mov _builtin_holtek_mulhi3_2[1],a
文件：HT66F0185.c  编译器版本 HGASM 0202 页次37

 359  003C  0FF6        	mov a,246  
 359  003D  0080     E  	mov _builtin_holtek_mulhi3_2[2],a  
 359  003E  0FFF        	mov a,255  
 359  003F  0080     E  	mov _builtin_holtek_mulhi3_2[3],a
 359  0040  2000     E  	call _builtin_holtek_mulhi3
 359  0041  0700     E  	mov a,_builtin_holtek_mulhi3_2[4]  
 359  0042  0080     E  	mov ra,a  
 359  0043  0700     E  	mov a,_builtin_holtek_mulhi3_2[5]  
 359  0044  0080     E  	mov rb,a
 359  0045  0700     E  	mov a,rc
 359  0046  0380     E  	addm a,ra
 359  0047  0700     E  	mov a,rd
 359  0048  1380     E  	adcm a,rb
 359  0049  0F00     R  	mov a,low offset _c_num
 359  004A  0380     E  	addm a,ra
 359  004B  0F00     R  	mov a,high offset _c_num
 359  004C  1380     E  	adcm a,rb
 359  004D  0700     E  	mov a,ra
 359  004E  0083        	mov mp,a
 359  004F  0700     E  	mov a,rb
 359  0050  0081        	mov sbp,a
 359  0051  2000     E  	call _Crom2Prom
 359  0052  0080     E  	mov ra,a
 359  0053  0700     E  	mov a,ra
 359  0054  0080     R  	mov _lcd_data[0],a
 360  0055              #line 360 "D:\Project\pcollar640\HT66F0185\HT66F0185.c"
 360  0055  0700     R  	mov a,_lcd_data[0]
 360  0056  0080     E  	mov ra,a
 360  0057  3400     E  	clr ra.7
 360  0058  0700     E  	mov a,ra
 360  0059  0080     R  	mov _lcd_data[0],a
 361  005A              #line 361 "D:\Project\pcollar640\HT66F0185\HT66F0185.c"
 361  005A  0700     R  	mov a,_a_10count[0]
 361  005B  0080     E  	mov ra,a
 361  005C  1080     E  	sz ra
 361  005D  2800     R  	jmp _LI5
 361  005E  2800     R  	jmp _L81
 361  005F              _LI5:
 363  005F              #line 363 "D:\Project\pcollar640\HT66F0185\HT66F0185.c"
 363  005F  0700     R  	mov a,_lcd_data[0]
 363  0060  0080     E  	mov ra,a
 363  0061  3000     E  	set ra.7
 363  0062  0700     E  	mov a,ra
 363  0063  0080     R  	mov _lcd_data[0],a
 364  0064              #line 364 "D:\Project\pcollar640\HT66F0185\HT66F0185.c"
 364  0064  1F00     R  	clr _a_10count[0]
 364  0065              _L81:
 367  0065              #line 367 "D:\Project\pcollar640\HT66F0185\HT66F0185.c"
 367  0065  3000     R  	set _f_flag[1].3
 368  0066              #line 368 "D:\Project\pcollar640\HT66F0185\HT66F0185.c"
 368  0066  0F02        	mov a,2
 368  0067  0080     R  	mov _SPI_WRITE_2[0],a
 368  0068  0F60        	mov a,96
 368  0069  2000     R  	call _SPI_WRITE
 369  006A              #line 369 "D:\Project\pcollar640\HT66F0185\HT66F0185.c"
 369  006A  0F04        	mov a,4
 369  006B  0080     R  	mov _SPI_WRITE_2[0],a
 369  006C  0F6A        	mov a,106
 369  006D  2000     R  	call _SPI_WRITE
 371  006E              #line 371 "D:\Project\pcollar640\HT66F0185\HT66F0185.c"
文件：HT66F0185.c  编译器版本 HGASM 0202 页次38

 371  006E  0F69        	mov a,105
 371  006F  2000     R  	call _SPI_READ
 371  0070  0080     E  	mov ra,a
 371  0071  0700     E  	mov a,ra
 371  0072  0080     R  	mov _CMT_TX_2[0],a
 372  0073              #line 372 "D:\Project\pcollar640\HT66F0185\HT66F0185.c"
 372  0073  3000     R  	set _CMT_TX_2[0].0
 373  0074              #line 373 "D:\Project\pcollar640\HT66F0185\HT66F0185.c"
 373  0074  3000     R  	set _CMT_TX_2[0].2
 374  0075              #line 374 "D:\Project\pcollar640\HT66F0185\HT66F0185.c"
 374  0075  0700     R  	mov a,_CMT_TX_2[0]
 374  0076  0080     R  	mov _SPI_WRITE_2[0],a
 374  0077  0F69        	mov a,105
 374  0078  2000     R  	call _SPI_WRITE
 376  0079              #line 376 "D:\Project\pcollar640\HT66F0185\HT66F0185.c"
 376  0079  0F01        	mov a,1
 376  007A  0080     R  	mov _SPI_WRITE_2[0],a
 376  007B  0F6C        	mov a,108
 376  007C  2000     R  	call _SPI_WRITE
 377  007D              #line 377 "D:\Project\pcollar640\HT66F0185\HT66F0185.c"
 377  007D  0F04        	mov a,4
 377  007E  2000     R  	call _FIFO_WRITE
 379  007F              #line 379 "D:\Project\pcollar640\HT66F0185\HT66F0185.c"
 379  007F  0F40        	mov a,64
 379  0080  0080     R  	mov _SPI_WRITE_2[0],a
 379  0081  0F60        	mov a,96
 379  0082  2000     R  	call _SPI_WRITE
 380  0083              #line 380 "D:\Project\pcollar640\HT66F0185\HT66F0185.c"
 380  0083  32A5        	set [37].5
 380  0084              _L80:
 383  0084              #line 383 "D:\Project\pcollar640\HT66F0185\HT66F0185.c"
 383  0084  0700     R  	mov a,_f_flag[1]
 383  0085  0080     E  	mov ra,a
 383  0086  0F08        	mov a,8
 383  0087  0680     E  	andm a,ra
 383  0088  1080     E  	sz ra
 383  0089  2800     R  	jmp _LI6
 383  008A  2800     R  	jmp _L79
 383  008B              _LI6:
 385  008B              #line 385 "D:\Project\pcollar640\HT66F0185\HT66F0185.c"
 385  008B  0725        	mov a,[37]
 385  008C  0080     E  	mov ra,a
 385  008D  1100     E  	swapa ra
 385  008E  1985        	rr acc
 385  008F  0E07        	and a,07h
 385  0090  0080     E  	mov ra,a
 385  0091  0F01        	mov a,1
 385  0092  0680     E  	andm a,ra
 385  0093  0F01        	mov a,1
 385  0094  0480     E  	xorm a,ra
 385  0095  0F01        	mov a,1
 385  0096  0680     E  	andm a,ra
 385  0097  0F01        	mov a,1
 385  0098  0680     E  	andm a,ra
 385  0099  1100     E  	swapa ra
 385  009A  1885        	rl acc
 385  009B  0EE0        	and a,0e0h
 385  009C  0080     E  	mov ra,a
 385  009D  36A5        	clr [37].5
 385  009E  0700     E  	mov a,ra
文件：HT66F0185.c  编译器版本 HGASM 0202 页次39

 385  009F  05A5        	orm a,[37]
 386  00A0              #line 386 "D:\Project\pcollar640\HT66F0185\HT66F0185.c"
 386  00A0  0714        	mov a,[20]
 386  00A1  0080     E  	mov ra,a
 386  00A2  0F04        	mov a,4
 386  00A3  0680     E  	andm a,ra
 386  00A4  1080     E  	sz ra
 386  00A5  2800     R  	jmp _L79
 388  00A6              #line 388 "D:\Project\pcollar640\HT66F0185\HT66F0185.c"
 388  00A6  3400     R  	clr _f_flag[1].3
 389  00A7              #line 389 "D:\Project\pcollar640\HT66F0185\HT66F0185.c"
 389  00A7  36A5        	clr [37].5
 390  00A8              #line 390 "D:\Project\pcollar640\HT66F0185\HT66F0185.c"
 390  00A8  0F04        	mov a,4
 390  00A9  0080     R  	mov _SPI_WRITE_2[0],a
 390  00AA  0F6A        	mov a,106
 390  00AB  2000     R  	call _SPI_WRITE
 391  00AC              #line 391 "D:\Project\pcollar640\HT66F0185\HT66F0185.c"
 391  00AC  0F10        	mov a,16
 391  00AD  0080     R  	mov _SPI_WRITE_2[0],a
 391  00AE  0F60        	mov a,96
 391  00AF  2000     R  	call _SPI_WRITE
 391  00B0              _L79:
 391  00B0  0003        	ret
 391  00B1              _CMT_TX endp
 391  00B1              #line 391 "D:\Project\pcollar640\HT66F0185\HT66F0185.c"
 391  00B1              #pragma debug scope 1 1
 391  00B1              public _KEY
 391  00B1              #pragma debug scope 9 1
 397  00B1              #line 397 "D:\Project\pcollar640\HT66F0185\HT66F0185.c"
 397  0000              _KEY .section 'code'
 397  0000              _KEY proc
 398  0000              #line 398 "D:\Project\pcollar640\HT66F0185\HT66F0185.c"
 398  0000  3315        	set [21].6
 399  0001              #line 399 "D:\Project\pcollar640\HT66F0185\HT66F0185.c"
 399  0001  3316        	set [22].6
 400  0002              #line 400 "D:\Project\pcollar640\HT66F0185\HT66F0185.c"
 400  0002  0714        	mov a,[20]
 400  0003  0080     E  	mov ra,a
 400  0004  0F40        	mov a,64
 400  0005  0680     E  	andm a,ra
 400  0006  1080     E  	sz ra
 400  0007  2800     R  	jmp _L86
 402  0008              #line 402 "D:\Project\pcollar640\HT66F0185\HT66F0185.c"
 402  0008  1F00     R  	clr _a_k2_high[0]
 403  0009              #line 403 "D:\Project\pcollar640\HT66F0185\HT66F0185.c"
 403  0009  0700     R  	mov a,_f_flag[0]
 403  000A  0080     E  	mov ra,a
 403  000B  0F40        	mov a,64
 403  000C  0680     E  	andm a,ra
 403  000D  1080     E  	sz ra
 403  000E  2800     R  	jmp _L88
 405  000F              #line 405 "D:\Project\pcollar640\HT66F0185\HT66F0185.c"
 405  000F  0700     R  	mov a,_a_k2_low[0]
 405  0010  0080     E  	mov ra,a
 405  0011  1480     E  	inc ra
 405  0012  0700     E  	mov a,ra
 405  0013  0080     R  	mov _a_k2_low[0],a
 406  0014              #line 406 "D:\Project\pcollar640\HT66F0185\HT66F0185.c"
 406  0014  0700     R  	mov a,_a_k2_low[0]
文件：HT66F0185.c  编译器版本 HGASM 0202 页次40

 406  0015  0080     E  	mov ra,a
 406  0016  0F04        	mov a,4
 406  0017  0200     E  	sub a,ra
 406  0018  3C0A        	sz c
 406  0019  2800     R  	jmp _L88
 408  001A              #line 408 "D:\Project\pcollar640\HT66F0185\HT66F0185.c"
 408  001A  3000     R  	set _f_flag[0].1
 409  001B              #line 409 "D:\Project\pcollar640\HT66F0185\HT66F0185.c"
 409  001B  3000     R  	set _f_flag[0].6
 409  001C  2800     R  	jmp _L88
 409  001D              _L86:
 415  001D              #line 415 "D:\Project\pcollar640\HT66F0185\HT66F0185.c"
 415  001D  1F00     R  	clr _a_k2_low[0]
 416  001E              #line 416 "D:\Project\pcollar640\HT66F0185\HT66F0185.c"
 416  001E  0700     R  	mov a,_f_flag[0]
 416  001F  0080     E  	mov ra,a
 416  0020  0F40        	mov a,64
 416  0021  0680     E  	andm a,ra
 416  0022  1080     E  	sz ra
 416  0023  2800     R  	jmp _LI7
 416  0024  2800     R  	jmp _L88
 416  0025              _LI7:
 418  0025              #line 418 "D:\Project\pcollar640\HT66F0185\HT66F0185.c"
 418  0025  0700     R  	mov a,_a_k2_high[0]
 418  0026  0080     E  	mov ra,a
 418  0027  1480     E  	inc ra
 418  0028  0700     E  	mov a,ra
 418  0029  0080     R  	mov _a_k2_high[0],a
 419  002A              #line 419 "D:\Project\pcollar640\HT66F0185\HT66F0185.c"
 419  002A  0700     R  	mov a,_a_k2_high[0]
 419  002B  0080     E  	mov ra,a
 419  002C  0F04        	mov a,4
 419  002D  0200     E  	sub a,ra
 419  002E  3C0A        	sz c
 419  002F  2800     R  	jmp _L88
 421  0030              #line 421 "D:\Project\pcollar640\HT66F0185\HT66F0185.c"
 421  0030  3400     R  	clr _f_flag[0].6
 421  0031              _L88:
 426  0031              #line 426 "D:\Project\pcollar640\HT66F0185\HT66F0185.c"
 426  0031  3295        	set [21].5
 427  0032              #line 427 "D:\Project\pcollar640\HT66F0185\HT66F0185.c"
 427  0032  3296        	set [22].5
 428  0033              #line 428 "D:\Project\pcollar640\HT66F0185\HT66F0185.c"
 428  0033  0714        	mov a,[20]
 428  0034  0080     E  	mov ra,a
 428  0035  0F20        	mov a,32
 428  0036  0680     E  	andm a,ra
 428  0037  1080     E  	sz ra
 428  0038  2800     R  	jmp _L89
 430  0039              #line 430 "D:\Project\pcollar640\HT66F0185\HT66F0185.c"
 430  0039  1F00     R  	clr _a_k3_high[0]
 431  003A              #line 431 "D:\Project\pcollar640\HT66F0185\HT66F0185.c"
 431  003A  0700     R  	mov a,_f_flag[0]
 431  003B  0080     E  	mov ra,a
 431  003C  0F80        	mov a,128
 431  003D  0680     E  	andm a,ra
 431  003E  1080     E  	sz ra
 431  003F  2800     R  	jmp _L85
 433  0040              #line 433 "D:\Project\pcollar640\HT66F0185\HT66F0185.c"
 433  0040  0700     R  	mov a,_a_k3_low[0]
文件：HT66F0185.c  编译器版本 HGASM 0202 页次41

 433  0041  0080     E  	mov ra,a
 433  0042  1480     E  	inc ra
 433  0043  0700     E  	mov a,ra
 433  0044  0080     R  	mov _a_k3_low[0],a
 434  0045              #line 434 "D:\Project\pcollar640\HT66F0185\HT66F0185.c"
 434  0045  0700     R  	mov a,_a_k3_low[0]
 434  0046  0080     E  	mov ra,a
 434  0047  0F04        	mov a,4
 434  0048  0200     E  	sub a,ra
 434  0049  3C0A        	sz c
 434  004A  2800     R  	jmp _L85
 436  004B              #line 436 "D:\Project\pcollar640\HT66F0185\HT66F0185.c"
 436  004B  1F00     R  	clr _a_k3_low[0]
 437  004C              #line 437 "D:\Project\pcollar640\HT66F0185\HT66F0185.c"
 437  004C  3000     R  	set _f_flag[0].2
 438  004D              #line 438 "D:\Project\pcollar640\HT66F0185\HT66F0185.c"
 438  004D  3000     R  	set _f_flag[0].7
 438  004E  2800     R  	jmp _L85
 438  004F              _L89:
 444  004F              #line 444 "D:\Project\pcollar640\HT66F0185\HT66F0185.c"
 444  004F  1F00     R  	clr _a_k3_low[0]
 445  0050              #line 445 "D:\Project\pcollar640\HT66F0185\HT66F0185.c"
 445  0050  0700     R  	mov a,_f_flag[0]
 445  0051  0080     E  	mov ra,a
 445  0052  0F80        	mov a,128
 445  0053  0680     E  	andm a,ra
 445  0054  1080     E  	sz ra
 445  0055  2800     R  	jmp _LI8
 445  0056  2800     R  	jmp _L85
 445  0057              _LI8:
 447  0057              #line 447 "D:\Project\pcollar640\HT66F0185\HT66F0185.c"
 447  0057  0700     R  	mov a,_a_k3_high[0]
 447  0058  0080     E  	mov ra,a
 447  0059  1480     E  	inc ra
 447  005A  0700     E  	mov a,ra
 447  005B  0080     R  	mov _a_k3_high[0],a
 448  005C              #line 448 "D:\Project\pcollar640\HT66F0185\HT66F0185.c"
 448  005C  0700     R  	mov a,_a_k3_high[0]
 448  005D  0080     E  	mov ra,a
 448  005E  0F04        	mov a,4
 448  005F  0200     E  	sub a,ra
 448  0060  3C0A        	sz c
 448  0061  2800     R  	jmp _L85
 450  0062              #line 450 "D:\Project\pcollar640\HT66F0185\HT66F0185.c"
 450  0062  1F00     R  	clr _a_k3_high[0]
 451  0063              #line 451 "D:\Project\pcollar640\HT66F0185\HT66F0185.c"
 451  0063  3400     R  	clr _f_flag[0].7
 451  0064              _L85:
 451  0064  0003        	ret
 451  0065              _KEY endp
 451  0065              #line 451 "D:\Project\pcollar640\HT66F0185\HT66F0185.c"
 451  0065              #pragma debug scope 1 1
 451  0065              ___bp equ [4]
 451  0065              ___mp1 equ [3]
 451  0065              ___iar1 equ [2]
 451  0065              ___cpc equ [63]
 451  0065              ___acerl equ [68]
 451  0065              ___pcc equ [66]
 451  0065              ___pdc equ [83]
 451  0065              ___sadc0 equ [34]
文件：HT66F0185.c  编译器版本 HGASM 0202 页次42

 451  0065              ___sadc1 equ [35]
 451  0065              ___sadc2 equ [36]
 451  0065              ___tm1al equ [59]
 451  0065              ___tm1ah equ [60]
 451  0065              ___tm1c0 equ [55]
 451  0065              ___tm1c1 equ [56]
 451  0065              ___intc1 equ [15]
 451  0065              ___intc0 equ [14]
 451  0065              ___smod equ [11]
 451  0065              ___lvdc equ [12]
 451  0065              ___pawu equ [23]
 451  0065              public _initail
 451  0065              #pragma debug scope 10 1
 458  0065              #line 458 "D:\Project\pcollar640\HT66F0185\HT66F0185.c"
 458  0000              _initail .section 'code'
 458  0000              _initail proc
 459  0000              #line 459 "D:\Project\pcollar640\HT66F0185\HT66F0185.c"
 459  0000  3404        	clr [4].0
 460  0001              #line 460 "D:\Project\pcollar640\HT66F0185\HT66F0185.c"
 460  0001  0F80        	mov a,128
 460  0002  0083        	mov [3],a
 460  0003  2800     R  	jmp _L93
 460  0004              _L94:
 460  0004              #line 460 "D:\Project\pcollar640\HT66F0185\HT66F0185.c"
 460  0004  1F02        	clr [2]
 460  0005  0703        	mov a,[3]
 460  0006  0080     E  	mov ra,a
 460  0007  1480     E  	inc ra
 460  0008  0700     E  	mov a,ra
 460  0009  0083        	mov [3],a
 460  000A              _L93:
 460  000A  0703        	mov a,[3]
 460  000B  0080     E  	mov ra,a
 460  000C  1600     E  	siza ra
 460  000D  2800     R  	jmp _L94
 461  000E              #line 461 "D:\Project\pcollar640\HT66F0185\HT66F0185.c"
 461  000E  1F02        	clr [2]
 462  000F              #line 462 "D:\Project\pcollar640\HT66F0185\HT66F0185.c"
 462  000F  3004        	set [4].0
 463  0010              #line 463 "D:\Project\pcollar640\HT66F0185\HT66F0185.c"
 463  0010  0F80        	mov a,128
 463  0011  0083        	mov [3],a
 463  0012  2800     R  	jmp _L95
 463  0013              _L96:
 463  0013  1F02        	clr [2]
 463  0014  0703        	mov a,[3]
 463  0015  0080     E  	mov ra,a
 463  0016  1480     E  	inc ra
 463  0017  0700     E  	mov a,ra
 463  0018  0083        	mov [3],a
 463  0019              _L95:
 463  0019  0703        	mov a,[3]
 463  001A  0080     E  	mov ra,a
 463  001B  1600     E  	siza ra
 463  001C  2800     R  	jmp _L96
 464  001D              #line 464 "D:\Project\pcollar640\HT66F0185\HT66F0185.c"
 464  001D  1F02        	clr [2]
 466  001E              #line 466 "D:\Project\pcollar640\HT66F0185\HT66F0185.c"
 466  001E  37BF        	clr [63].7
 467  001F              #line 467 "D:\Project\pcollar640\HT66F0185\HT66F0185.c"
文件：HT66F0185.c  编译器版本 HGASM 0202 页次43

 467  001F  31BF        	set [63].3
 468  0020              #line 468 "D:\Project\pcollar640\HT66F0185\HT66F0185.c"
 468  0020  1F44        	clr [68]
 469  0021              #line 469 "D:\Project\pcollar640\HT66F0185\HT66F0185.c"
 469  0021  3542        	clr [66].2
 470  0022              #line 470 "D:\Project\pcollar640\HT66F0185\HT66F0185.c"
 470  0022  36C2        	clr [66].5
 471  0023              #line 471 "D:\Project\pcollar640\HT66F0185\HT66F0185.c"
 471  0023  3495        	clr [21].1
 472  0024              #line 472 "D:\Project\pcollar640\HT66F0185\HT66F0185.c"
 472  0024  3726        	clr [38].6
 473  0025              #line 473 "D:\Project\pcollar640\HT66F0185\HT66F0185.c"
 473  0025  3442        	clr [66].0
 474  0026              #line 474 "D:\Project\pcollar640\HT66F0185\HT66F0185.c"
 474  0026  34C2        	clr [66].1
 475  0027              #line 475 "D:\Project\pcollar640\HT66F0185\HT66F0185.c"
 475  0027  3642        	clr [66].4
 476  0028              #line 476 "D:\Project\pcollar640\HT66F0185\HT66F0185.c"
 476  0028  3595        	clr [21].3
 478  0029              #line 478 "D:\Project\pcollar640\HT66F0185\HT66F0185.c"
 478  0029  3541        	clr [65].2
 479  002A              #line 479 "D:\Project\pcollar640\HT66F0185\HT66F0185.c"
 479  002A  36C1        	clr [65].5
 480  002B              #line 480 "D:\Project\pcollar640\HT66F0185\HT66F0185.c"
 480  002B  3494        	clr [20].1
 481  002C              #line 481 "D:\Project\pcollar640\HT66F0185\HT66F0185.c"
 481  002C  3725        	clr [37].6
 482  002D              #line 482 "D:\Project\pcollar640\HT66F0185\HT66F0185.c"
 482  002D  3441        	clr [65].0
 483  002E              #line 483 "D:\Project\pcollar640\HT66F0185\HT66F0185.c"
 483  002E  34C1        	clr [65].1
 484  002F              #line 484 "D:\Project\pcollar640\HT66F0185\HT66F0185.c"
 484  002F  3641        	clr [65].4
 485  0030              #line 485 "D:\Project\pcollar640\HT66F0185\HT66F0185.c"
 485  0030  3594        	clr [20].3
 486  0031              #line 486 "D:\Project\pcollar640\HT66F0185\HT66F0185.c"
 486  0031  324A        	set [74].4
 487  0032              #line 487 "D:\Project\pcollar640\HT66F0185\HT66F0185.c"
 487  0032  334A        	set [74].6
 488  0033              #line 488 "D:\Project\pcollar640\HT66F0185\HT66F0185.c"
 488  0033  32CA        	set [74].5
 490  0034              #line 490 "D:\Project\pcollar640\HT66F0185\HT66F0185.c"
 490  0034  3115        	set [21].2
 491  0035              #line 491 "D:\Project\pcollar640\HT66F0185\HT66F0185.c"
 491  0035  3116        	set [22].2
 492  0036              #line 492 "D:\Project\pcollar640\HT66F0185\HT66F0185.c"
 492  0036  34D3        	clr [83].1
 493  0037              #line 493 "D:\Project\pcollar640\HT66F0185\HT66F0185.c"
 493  0037  3553        	clr [83].2
 494  0038              #line 494 "D:\Project\pcollar640\HT66F0185\HT66F0185.c"
 494  0038  3426        	clr [38].0
 495  0039              #line 495 "D:\Project\pcollar640\HT66F0185\HT66F0185.c"
 495  0039  34A6        	clr [38].1
 496  003A              #line 496 "D:\Project\pcollar640\HT66F0185\HT66F0185.c"
 496  003A  3025        	set [37].0
 497  003B              #line 497 "D:\Project\pcollar640\HT66F0185\HT66F0185.c"
 497  003B  36A6        	clr [38].5
 498  003C              #line 498 "D:\Project\pcollar640\HT66F0185\HT66F0185.c"
 498  003C  36A5        	clr [37].5
 499  003D              #line 499 "D:\Project\pcollar640\HT66F0185\HT66F0185.c"
文件：HT66F0185.c  编译器版本 HGASM 0202 页次44

 499  003D  3626        	clr [38].4
 501  003E              #line 501 "D:\Project\pcollar640\HT66F0185\HT66F0185.c"
 501  003E  32A2        	set [34].5
 503  003F              #line 503 "D:\Project\pcollar640\HT66F0185\HT66F0185.c"
 503  003F  3622        	clr [34].4
 505  0040              #line 505 "D:\Project\pcollar640\HT66F0185\HT66F0185.c"
 505  0040  37A3        	clr [35].7
 506  0041              #line 506 "D:\Project\pcollar640\HT66F0185\HT66F0185.c"
 506  0041  3723        	clr [35].6
 507  0042              #line 507 "D:\Project\pcollar640\HT66F0185\HT66F0185.c"
 507  0042  36A3        	clr [35].5
 509  0043              #line 509 "D:\Project\pcollar640\HT66F0185\HT66F0185.c"
 509  0043  33A4        	set [36].7
 510  0044              #line 510 "D:\Project\pcollar640\HT66F0185\HT66F0185.c"
 510  0044  3324        	set [36].6
 512  0045              #line 512 "D:\Project\pcollar640\HT66F0185\HT66F0185.c"
 512  0045  31A4        	set [36].3
 513  0046              #line 513 "D:\Project\pcollar640\HT66F0185\HT66F0185.c"
 513  0046  3524        	clr [36].2
 514  0047              #line 514 "D:\Project\pcollar640\HT66F0185\HT66F0185.c"
 514  0047  30A4        	set [36].1
 515  0048              #line 515 "D:\Project\pcollar640\HT66F0185\HT66F0185.c"
 515  0048  3424        	clr [36].0
 517  0049              #line 517 "D:\Project\pcollar640\HT66F0185\HT66F0185.c"
 517  0049  3523        	clr [35].2
 518  004A              #line 518 "D:\Project\pcollar640\HT66F0185\HT66F0185.c"
 518  004A  30A3        	set [35].1
 519  004B              #line 519 "D:\Project\pcollar640\HT66F0185\HT66F0185.c"
 519  004B  3023        	set [35].0
 521  004C              #line 521 "D:\Project\pcollar640\HT66F0185\HT66F0185.c"
 521  004C  33C4        	set [68].7
 523  004D              #line 523 "D:\Project\pcollar640\HT66F0185\HT66F0185.c"
 523  004D  3122        	set [34].2
 524  004E              #line 524 "D:\Project\pcollar640\HT66F0185\HT66F0185.c"
 524  004E  30A2        	set [34].1
 525  004F              #line 525 "D:\Project\pcollar640\HT66F0185\HT66F0185.c"
 525  004F  3022        	set [34].0
 529  0050              #line 529 "D:\Project\pcollar640\HT66F0185\HT66F0185.c"
 529  0050  0F71        	mov a,113
 529  0051  00BB        	mov [59],a
 530  0052              #line 530 "D:\Project\pcollar640\HT66F0185\HT66F0185.c"
 530  0052  0F02        	mov a,2
 530  0053  00BC        	mov [60],a
 532  0054              #line 532 "D:\Project\pcollar640\HT66F0185\HT66F0185.c"
 532  0054  3737        	clr [55].6
 533  0055              #line 533 "D:\Project\pcollar640\HT66F0185\HT66F0185.c"
 533  0055  32B7        	set [55].5
 534  0056              #line 534 "D:\Project\pcollar640\HT66F0185\HT66F0185.c"
 534  0056  3637        	clr [55].4
 536  0057              #line 536 "D:\Project\pcollar640\HT66F0185\HT66F0185.c"
 536  0057  33B8        	set [56].7
 537  0058              #line 537 "D:\Project\pcollar640\HT66F0185\HT66F0185.c"
 537  0058  3338        	set [56].6
 539  0059              #line 539 "D:\Project\pcollar640\HT66F0185\HT66F0185.c"
 539  0059  3038        	set [56].0
 541  005A              #line 541 "D:\Project\pcollar640\HT66F0185\HT66F0185.c"
 541  005A  31B7        	set [55].3
 542  005B              #line 542 "D:\Project\pcollar640\HT66F0185\HT66F0185.c"
 542  005B  3092        	set [18].1
 543  005C              #line 543 "D:\Project\pcollar640\HT66F0185\HT66F0185.c"
文件：HT66F0185.c  编译器版本 HGASM 0202 页次45

 543  005C  300F        	set [15].0
 544  005D              #line 544 "D:\Project\pcollar640\HT66F0185\HT66F0185.c"
 544  005D  300E        	set [14].0
 545  005E              #line 545 "D:\Project\pcollar640\HT66F0185\HT66F0185.c"
 545  005E  1F00     R  	clr _lcd_data[0]
 546  005F              #line 546 "D:\Project\pcollar640\HT66F0185\HT66F0185.c"
 546  005F  1F00     R  	clr _lcd_data[1]
 548  0060              #line 548 "D:\Project\pcollar640\HT66F0185\HT66F0185.c"
 548  0060  3225        	set [37].4
 549  0061              #line 549 "D:\Project\pcollar640\HT66F0185\HT66F0185.c"
 549  0061  2000     R  	call _CMT_init
 550  0062              #line 550 "D:\Project\pcollar640\HT66F0185\HT66F0185.c"
 550  0062  0F55        	mov a,85
 550  0063  0080     R  	mov _a_tx[0],a
 551  0064              #line 551 "D:\Project\pcollar640\HT66F0185\HT66F0185.c"
 551  0064  0FAA        	mov a,170
 551  0065  0080     R  	mov _a_tx[1],a
 552  0066              #line 552 "D:\Project\pcollar640\HT66F0185\HT66F0185.c"
 552  0066  0FAA        	mov a,170
 552  0067  0080     R  	mov _a_tx[2],a
 553  0068              #line 553 "D:\Project\pcollar640\HT66F0185\HT66F0185.c"
 553  0068  0F55        	mov a,85
 553  0069  0080     R  	mov _a_tx[3],a
 554  006A              #line 554 "D:\Project\pcollar640\HT66F0185\HT66F0185.c"
 554  006A  0700     R  	mov a,_a_count[0]
 554  006B  0080     E  	mov ra,a
 554  006C  1F00     E  	clr rb
 554  006D  0F00     R  	mov a,low offset _c_num
 554  006E  0380     E  	addm a,ra
 554  006F  0F00     R  	mov a,high offset _c_num
 554  0070  1380     E  	adcm a,rb
 554  0071  0700     E  	mov a,ra
 554  0072  0083        	mov mp,a
 554  0073  0700     E  	mov a,rb
 554  0074  0081        	mov sbp,a
 554  0075  2000     E  	call _Crom2Prom
 554  0076  0080     E  	mov ra,a
 554  0077  0700     E  	mov a,ra
 554  0078  0080     R  	mov _lcd_data[0],a
 555  0079              #line 555 "D:\Project\pcollar640\HT66F0185\HT66F0185.c"
 555  0079  0F03        	mov a,3
 555  007A  0080     R  	mov _a_set_count[0],a
 557  007B              #line 557 "D:\Project\pcollar640\HT66F0185\HT66F0185.c"
 557  007B  348B        	clr [11].1
 558  007C              #line 558 "D:\Project\pcollar640\HT66F0185\HT66F0185.c"
 558  007C  360C        	clr [12].4
 559  007D              #line 559 "D:\Project\pcollar640\HT66F0185\HT66F0185.c"
 559  007D  3017        	set [23].0
 560  007E              #line 560 "D:\Project\pcollar640\HT66F0185\HT66F0185.c"
 560  007E  3397        	set [23].7
 561  007F              #line 561 "D:\Project\pcollar640\HT66F0185\HT66F0185.c"
 561  007F  3317        	set [23].6
 562  0080              #line 562 "D:\Project\pcollar640\HT66F0185\HT66F0185.c"
 562  0080  3297        	set [23].5
 562  0081  0003        	ret
 562  0082              _initail endp
 562  0082              #line 562 "D:\Project\pcollar640\HT66F0185\HT66F0185.c"
 562  0082              #pragma debug scope 1 1
 562  0082              ___sadoh equ [33]
 562  0082              public _AD_channel
文件：HT66F0185.c  编译器版本 HGASM 0202 页次46

 562  0082              #pragma debug scope 11 1
 757  0082              #line 757 "D:\Project\pcollar640\HT66F0185\HT66F0185.c"
 757  0000              _AD_channel .section 'code'
 757  0000              _AD_channel proc
 757  0000  0007[           local _AD_channel_2 db 7 dup(?)	; 0,7
            00
            ]
 757  0007              #pragma debug variable 8 11 _AD_channel_2+0 "i"
 757  0007              #pragma debug variable 12 11 _AD_channel_2+1 "sum"
 757  0007              #pragma debug variable 12 11 _AD_channel_2+3 "ad_max"
 757  0007              #pragma debug variable 12 11 _AD_channel_2+5 "ad_min"
 761  0007              #line 761 "D:\Project\pcollar640\HT66F0185\HT66F0185.c"
 761  0000  1F00     R  	clr _AD_channel_2[1]
 761  0001  1F00     R  	clr _AD_channel_2[2]
 762  0002              #line 762 "D:\Project\pcollar640\HT66F0185\HT66F0185.c"
 762  0002  1F00     R  	clr _AD_channel_2[3]
 762  0003  1F00     R  	clr _AD_channel_2[4]
 763  0004              #line 763 "D:\Project\pcollar640\HT66F0185\HT66F0185.c"
 763  0004  1F80     R  	set _AD_channel_2[5]
 763  0005  1F80     R  	set _AD_channel_2[6]
 764  0006              #line 764 "D:\Project\pcollar640\HT66F0185\HT66F0185.c"
 764  0006  1F00     R  	clr _AD_channel_2[0]
 764  0007  2800     R  	jmp _L98
 764  0008              _L102:
 766  0008              #line 766 "D:\Project\pcollar640\HT66F0185\HT66F0185.c"
 766  0008  37A2        	clr [34].7
 767  0009              #line 767 "D:\Project\pcollar640\HT66F0185\HT66F0185.c"
 767  0009  33A2        	set [34].7
 768  000A              #line 768 "D:\Project\pcollar640\HT66F0185\HT66F0185.c"
 768  000A  37A2        	clr [34].7
 769  000B              #line 769 "D:\Project\pcollar640\HT66F0185\HT66F0185.c"
 769  000B              	;nop
 769  000B              _L99:
 769  000B  0722        	mov a,[34]
 769  000C  0080     E  	mov ra,a
 769  000D  0F40        	mov a,64
 769  000E  0680     E  	andm a,ra
 769  000F  1080     E  	sz ra
 769  0010  2800     R  	jmp _L99
 770  0011              #line 770 "D:\Project\pcollar640\HT66F0185\HT66F0185.c"
 770  0011  0721        	mov a,[33]
 770  0012  0080     E  	mov ra,a
 770  0013  1F00     E  	clr rb
 770  0014  0700     E  	mov a,ra
 770  0015  0380     R  	addm a,_AD_channel_2[1]
 770  0016  0700     E  	mov a,rb
 770  0017  1380     R  	adcm a,_AD_channel_2[2]
 771  0018              #line 771 "D:\Project\pcollar640\HT66F0185\HT66F0185.c"
 771  0018  0721        	mov a,[33]
 771  0019  0080     E  	mov ra,a
 771  001A  1F00     E  	clr rb
 771  001B  0700     R  	mov a,_AD_channel_2[3]
 771  001C  0200     E  	sub a,ra
 771  001D  0700     R  	mov a,_AD_channel_2[4]
 771  001E  1200     E  	sbc a,rb
 771  001F  3C0A        	sz c
 771  0020  2800     R  	jmp _L100
 771  0021  0721        	mov a,[33]
 771  0022  0080     E  	mov ra,a
 771  0023  0700     E  	mov a,ra
文件：HT66F0185.c  编译器版本 HGASM 0202 页次47

 771  0024  0080     R  	mov _AD_channel_2[3],a
 771  0025  1F00     R  	clr _AD_channel_2[4]
 771  0026  2800     R  	jmp _L101
 771  0027              _L100:
 772  0027              #line 772 "D:\Project\pcollar640\HT66F0185\HT66F0185.c"
 772  0027  0721        	mov a,[33]
 772  0028  0080     E  	mov ra,a
 772  0029  1F00     E  	clr rb
 772  002A  0700     E  	mov a,ra
 772  002B  0200     R  	sub a,_AD_channel_2[5]
 772  002C  0700     E  	mov a,rb
 772  002D  1200     R  	sbc a,_AD_channel_2[6]
 772  002E  3C0A        	sz c
 772  002F  2800     R  	jmp _L101
 772  0030  0721        	mov a,[33]
 772  0031  0080     E  	mov ra,a
 772  0032  0700     E  	mov a,ra
 772  0033  0080     R  	mov _AD_channel_2[5],a
 772  0034  1F00     R  	clr _AD_channel_2[6]
 772  0035              _L101:
 764  0035              #line 764 "D:\Project\pcollar640\HT66F0185\HT66F0185.c"
 764  0035  0700     R  	mov a,_AD_channel_2[0]
 764  0036  0080     E  	mov ra,a
 764  0037  1400     E  	inca ra
 764  0038  0080     R  	mov _AD_channel_2[0],a
 764  0039              _L98:
 764  0039  0F11        	mov a,17
 764  003A  0200     R  	sub a,_AD_channel_2[0]
 764  003B  3C0A        	sz c
 764  003C  2800     R  	jmp _L102
 774  003D              #line 774 "D:\Project\pcollar640\HT66F0185\HT66F0185.c"
 774  003D  0700     R  	mov a,_AD_channel_2[1]
 774  003E  0200     R  	sub a,_AD_channel_2[3]
 774  003F  0080     R  	mov _AD_channel_2[1],a
 774  0040  0700     R  	mov a,_AD_channel_2[2]
 774  0041  1200     R  	sbc a,_AD_channel_2[4]
 774  0042  0080     R  	mov _AD_channel_2[2],a
 775  0043              #line 775 "D:\Project\pcollar640\HT66F0185\HT66F0185.c"
 775  0043  0700     R  	mov a,_AD_channel_2[1]
 775  0044  0200     R  	sub a,_AD_channel_2[5]
 775  0045  0080     R  	mov _AD_channel_2[1],a
 775  0046  0700     R  	mov a,_AD_channel_2[2]
 775  0047  1200     R  	sbc a,_AD_channel_2[6]
 775  0048  0080     R  	mov _AD_channel_2[2],a
 776  0049              #line 776 "D:\Project\pcollar640\HT66F0185\HT66F0185.c"
 776  0049  0F04        	mov a,4
 776  004A              _LI9:
 776  004A  340A        	clr c
 776  004B  1B80     R  	rrc _AD_channel_2[2]
 776  004C  1B80     R  	rrc _AD_channel_2[1]
 776  004D  1785        	sdz acc
 776  004E  2800     R  	jmp _LI9
 778  004F              #line 778 "D:\Project\pcollar640\HT66F0185\HT66F0185.c"
 778  004F  0700     R  	mov a,_AD_channel_2[1]
 778  0050  0080     E  	mov ra,a
 778  0051  0700     R  	mov a,_AD_channel_2[2]
 778  0052  0080     E  	mov rb,a
 778  0053  0003        	ret
 778  0054              _AD_channel endp
 778  0054              #line 778 "D:\Project\pcollar640\HT66F0185\HT66F0185.c"
文件：HT66F0185.c  编译器版本 HGASM 0202 页次48

 778  0054              #pragma debug scope 1 1
 778  0054              public _Voltage
 778  0054              #pragma debug scope 12 1
 784  0054              #line 784 "D:\Project\pcollar640\HT66F0185\HT66F0185.c"
 784  0000              _Voltage .section 'code'
 784  0000              _Voltage proc
 785  0000              #line 785 "D:\Project\pcollar640\HT66F0185\HT66F0185.c"
 785  0000  2000     R  	call _AD_channel
 785  0001  0700     E  	mov a,ra
 785  0002  0080     R  	mov _ad_data[0],a
 786  0003              #line 786 "D:\Project\pcollar640\HT66F0185\HT66F0185.c"
 786  0003  0700     R  	mov a,_a_voltage_count[0]
 786  0004  0080     E  	mov ra,a
 786  0005  0F0F        	mov a,15
 786  0006  0200     E  	sub a,ra
 786  0007  380A        	snz c
 786  0008  2800     R  	jmp _L105
 788  0009              #line 788 "D:\Project\pcollar640\HT66F0185\HT66F0185.c"
 788  0009  0700     R  	mov a,_a_voltage_count[0]
 788  000A  0080     E  	mov ra,a
 788  000B  1480     E  	inc ra
 788  000C  0700     E  	mov a,ra
 788  000D  0080     R  	mov _a_voltage_count[0],a
 789  000E              #line 789 "D:\Project\pcollar640\HT66F0185\HT66F0185.c"
 789  000E  0700     R  	mov a,_ad_data[0]
 789  000F  0080     E  	mov ra,a
 789  0010  0700     E  	mov a,ra
 789  0011  0080     E  	mov rc,a
 789  0012  1F00     E  	clr rd
 789  0013  0700     R  	mov a,_ad_voltage_buf[0]
 789  0014  0080     E  	mov ra,a
 789  0015  0700     R  	mov a,_ad_voltage_buf[1]
 789  0016  0080     E  	mov rb,a
 789  0017  0700     E  	mov a,rc
 789  0018  0380     E  	addm a,ra
 789  0019  0700     E  	mov a,rd
 789  001A  1380     E  	adcm a,rb
 789  001B  0700     E  	mov a,ra
 789  001C  0080     R  	mov _ad_voltage_buf[0],a
 789  001D  0700     E  	mov a,rb
 789  001E  0080     R  	mov _ad_voltage_buf[1],a
 789  001F  2800     R  	jmp _L106
 789  0020              _L105:
 793  0020              #line 793 "D:\Project\pcollar640\HT66F0185\HT66F0185.c"
 793  0020  1F00     R  	clr _a_voltage_count[0]
 794  0021              #line 794 "D:\Project\pcollar640\HT66F0185\HT66F0185.c"
 794  0021  0700     R  	mov a,_ad_voltage_buf[0]
 794  0022  0080     E  	mov ra,a
 794  0023  0700     R  	mov a,_ad_voltage_buf[1]
 794  0024  0080     E  	mov rb,a
 794  0025  0F04        	mov a,4
 794  0026              _LI10:
 794  0026  340A        	clr c
 794  0027  1B80     E  	rrc rb
 794  0028  1B80     E  	rrc ra
 794  0029  1785        	sdz acc
 794  002A  2800     R  	jmp _LI10
 794  002B  0700     E  	mov a,ra
 794  002C  0080     R  	mov _ad_voltage_buf[0],a
 794  002D  0700     E  	mov a,rb
文件：HT66F0185.c  编译器版本 HGASM 0202 页次49

 794  002E  0080     R  	mov _ad_voltage_buf[1],a
 795  002F              #line 795 "D:\Project\pcollar640\HT66F0185\HT66F0185.c"
 795  002F  0700     R  	mov a,_ad_voltage_buf[0]
 795  0030  0080     E  	mov ra,a
 795  0031  0700     R  	mov a,_ad_voltage_buf[1]
 795  0032  0080     E  	mov rb,a
 795  0033  0FEE        	mov a,238
 795  0034  0200     E  	sub a,ra
 795  0035  0F00        	mov a,0
 795  0036  1200     E  	sbc a,rb
 795  0037  3C0A        	sz c
 795  0038  2800     R  	jmp _L107
 797  0039              #line 797 "D:\Project\pcollar640\HT66F0185\HT66F0185.c"
 797  0039  0700     R  	mov a,_f_flag[1]
 797  003A  0080     E  	mov ra,a
 797  003B  0F20        	mov a,32
 797  003C  0680     E  	andm a,ra
 797  003D  1080     E  	sz ra
 797  003E  2800     R  	jmp _L109
 797  003F  0F03        	mov a,3
 797  0040  0080     R  	mov _a_voltage_level[0],a
 797  0041  2800     R  	jmp _L109
 797  0042              _L107:
 799  0042              #line 799 "D:\Project\pcollar640\HT66F0185\HT66F0185.c"
 799  0042  0700     R  	mov a,_ad_voltage_buf[0]
 799  0043  0080     E  	mov ra,a
 799  0044  0700     R  	mov a,_ad_voltage_buf[1]
 799  0045  0080     E  	mov rb,a
 799  0046  0FDC        	mov a,220
 799  0047  0200     E  	sub a,ra
 799  0048  0F00        	mov a,0
 799  0049  1200     E  	sbc a,rb
 799  004A  3C0A        	sz c
 799  004B  2800     R  	jmp _L110
 801  004C              #line 801 "D:\Project\pcollar640\HT66F0185\HT66F0185.c"
 801  004C  0700     R  	mov a,_f_flag[1]
 801  004D  0080     E  	mov ra,a
 801  004E  0F40        	mov a,64
 801  004F  0680     E  	andm a,ra
 801  0050  1080     E  	sz ra
 801  0051  2800     R  	jmp _L109
 803  0052              #line 803 "D:\Project\pcollar640\HT66F0185\HT66F0185.c"
 803  0052  0F02        	mov a,2
 803  0053  0080     R  	mov _a_voltage_level[0],a
 804  0054              #line 804 "D:\Project\pcollar640\HT66F0185\HT66F0185.c"
 804  0054  3000     R  	set _f_flag[1].5
 804  0055  2800     R  	jmp _L109
 804  0056              _L110:
 807  0056              #line 807 "D:\Project\pcollar640\HT66F0185\HT66F0185.c"
 807  0056  0700     R  	mov a,_ad_voltage_buf[0]
 807  0057  0080     E  	mov ra,a
 807  0058  0700     R  	mov a,_ad_voltage_buf[1]
 807  0059  0080     E  	mov rb,a
 807  005A  0FD6        	mov a,214
 807  005B  0200     E  	sub a,ra
 807  005C  0F00        	mov a,0
 807  005D  1200     E  	sbc a,rb
 807  005E  3C0A        	sz c
 807  005F  2800     R  	jmp _L112
 809  0060              #line 809 "D:\Project\pcollar640\HT66F0185\HT66F0185.c"
文件：HT66F0185.c  编译器版本 HGASM 0202 页次50

 809  0060  0700     R  	mov a,_f_flag[1]
 809  0061  0080     E  	mov ra,a
 809  0062  0F80        	mov a,128
 809  0063  0680     E  	andm a,ra
 809  0064  1080     E  	sz ra
 809  0065  2800     R  	jmp _L109
 811  0066              #line 811 "D:\Project\pcollar640\HT66F0185\HT66F0185.c"
 811  0066  0F01        	mov a,1
 811  0067  0080     R  	mov _a_voltage_level[0],a
 812  0068              #line 812 "D:\Project\pcollar640\HT66F0185\HT66F0185.c"
 812  0068  3000     R  	set _f_flag[1].5
 813  0069              #line 813 "D:\Project\pcollar640\HT66F0185\HT66F0185.c"
 813  0069  3000     R  	set _f_flag[1].6
 813  006A  2800     R  	jmp _L109
 813  006B              _L112:
 818  006B              #line 818 "D:\Project\pcollar640\HT66F0185\HT66F0185.c"
 818  006B  0700     R  	mov a,_f_flag[2]
 818  006C  0080     E  	mov ra,a
 818  006D  0F01        	mov a,1
 818  006E  0680     E  	andm a,ra
 818  006F  1080     E  	sz ra
 818  0070  2800     R  	jmp _L109
 820  0071              #line 820 "D:\Project\pcollar640\HT66F0185\HT66F0185.c"
 820  0071  1F00     R  	clr _a_voltage_level[0]
 821  0072              #line 821 "D:\Project\pcollar640\HT66F0185\HT66F0185.c"
 821  0072  3000     R  	set _f_flag[1].5
 822  0073              #line 822 "D:\Project\pcollar640\HT66F0185\HT66F0185.c"
 822  0073  3000     R  	set _f_flag[1].6
 823  0074              #line 823 "D:\Project\pcollar640\HT66F0185\HT66F0185.c"
 823  0074  3000     R  	set _f_flag[1].7
 824  0075              #line 824 "D:\Project\pcollar640\HT66F0185\HT66F0185.c"
 824  0075  3000     R  	set _f_flag[2].0
 824  0076              _L109:
 827  0076              #line 827 "D:\Project\pcollar640\HT66F0185\HT66F0185.c"
 827  0076  1F00     R  	clr _ad_voltage_buf[0]
 827  0077  1F00     R  	clr _ad_voltage_buf[1]
 827  0078              _L106:
 829  0078              #line 829 "D:\Project\pcollar640\HT66F0185\HT66F0185.c"
 829  0078  0700     R  	mov a,_a_voltage_level[0]
 829  0079  0080     E  	mov ra,a
 829  007A  1F00     E  	clr rb
 829  007B  0700     E  	mov a,ra
 829  007C  0500     E  	or a,rb
 829  007D  3D0A        	sz z
 829  007E  2800     R  	jmp _L115
 829  007F  0700     E  	mov a,ra
 829  0080  0C01        	xor a,1
 829  0081  0500     E  	or a,rb
 829  0082  3D0A        	sz z
 829  0083  2800     R  	jmp _L116
 829  0084  0700     E  	mov a,ra
 829  0085  0C02        	xor a,2
 829  0086  0500     E  	or a,rb
 829  0087  3D0A        	sz z
 829  0088  2800     R  	jmp _L117
 829  0089  0700     E  	mov a,ra
 829  008A  0C03        	xor a,3
 829  008B  0500     E  	or a,rb
 829  008C  3D0A        	sz z
 829  008D  2800     R  	jmp _L118
文件：HT66F0185.c  编译器版本 HGASM 0202 页次51

 829  008E  2800     R  	jmp _L104
 829  008F              _L115:
 832  008F              #line 832 "D:\Project\pcollar640\HT66F0185\HT66F0185.c"
 832  008F  0700     R  	mov a,_lcd_data[1]
 832  0090  0080     E  	mov ra,a
 832  0091  0F1F        	mov a,31
 832  0092  0680     E  	andm a,ra
 832  0093  0700     E  	mov a,ra
 832  0094  0080     R  	mov _lcd_data[1],a
 833  0095              #line 833 "D:\Project\pcollar640\HT66F0185\HT66F0185.c"
 833  0095  0700     R  	mov a,_f_flag[2]
 833  0096  0080     E  	mov ra,a
 833  0097  0F02        	mov a,2
 833  0098  0680     E  	andm a,ra
 833  0099  1080     E  	sz ra
 833  009A  2800     R  	jmp _LI11
 833  009B  2800     R  	jmp _L119
 833  009C              _LI11:
 835  009C              #line 835 "D:\Project\pcollar640\HT66F0185\HT66F0185.c"
 835  009C  3400     R  	clr _f_flag[2].1
 836  009D              #line 836 "D:\Project\pcollar640\HT66F0185\HT66F0185.c"
 836  009D  0700     R  	mov a,_lcd_data[1]
 836  009E  0080     E  	mov ra,a
 836  009F  0F10        	mov a,16
 836  00A0  0480     E  	xorm a,ra
 836  00A1  0700     E  	mov a,ra
 836  00A2  0080     R  	mov _lcd_data[1],a
 838  00A3              #line 838 "D:\Project\pcollar640\HT66F0185\HT66F0185.c"
 838  00A3  2800     R  	jmp _L104
 838  00A4              _L119:
 838  00A4  2800     R  	jmp _L104
 838  00A5              _L116:
 840  00A5              #line 840 "D:\Project\pcollar640\HT66F0185\HT66F0185.c"
 840  00A5  0700     R  	mov a,_lcd_data[1]
 840  00A6  0080     E  	mov ra,a
 840  00A7  0F0F        	mov a,15
 840  00A8  0680     E  	andm a,ra
 840  00A9  0700     E  	mov a,ra
 840  00AA  0080     R  	mov _lcd_data[1],a
 841  00AB              #line 841 "D:\Project\pcollar640\HT66F0185\HT66F0185.c"
 841  00AB  0700     R  	mov a,_lcd_data[1]
 841  00AC  0080     E  	mov ra,a
 841  00AD  0F50        	mov a,80
 841  00AE  0580     E  	orm a,ra
 841  00AF  0700     E  	mov a,ra
 841  00B0  0080     R  	mov _lcd_data[1],a
 842  00B1              #line 842 "D:\Project\pcollar640\HT66F0185\HT66F0185.c"
 842  00B1  2800     R  	jmp _L104
 842  00B2              _L117:
 844  00B2              #line 844 "D:\Project\pcollar640\HT66F0185\HT66F0185.c"
 844  00B2  0700     R  	mov a,_lcd_data[1]
 844  00B3  0080     E  	mov ra,a
 844  00B4  0F0F        	mov a,15
 844  00B5  0680     E  	andm a,ra
 844  00B6  0700     E  	mov a,ra
 844  00B7  0080     R  	mov _lcd_data[1],a
 845  00B8              #line 845 "D:\Project\pcollar640\HT66F0185\HT66F0185.c"
 845  00B8  0700     R  	mov a,_lcd_data[1]
 845  00B9  0080     E  	mov ra,a
 845  00BA  0FD0        	mov a,208
文件：HT66F0185.c  编译器版本 HGASM 0202 页次52

 845  00BB  0580     E  	orm a,ra
 845  00BC  0700     E  	mov a,ra
 845  00BD  0080     R  	mov _lcd_data[1],a
 846  00BE              #line 846 "D:\Project\pcollar640\HT66F0185\HT66F0185.c"
 846  00BE  2800     R  	jmp _L104
 846  00BF              _L118:
 848  00BF              #line 848 "D:\Project\pcollar640\HT66F0185\HT66F0185.c"
 848  00BF  0700     R  	mov a,_lcd_data[1]
 848  00C0  0080     E  	mov ra,a
 848  00C1  0FF0        	mov a,240
 848  00C2  0580     E  	orm a,ra
 848  00C3  0700     E  	mov a,ra
 848  00C4  0080     R  	mov _lcd_data[1],a
 849  00C5              #line 849 "D:\Project\pcollar640\HT66F0185\HT66F0185.c"
 849  00C5              	;nop
 849  00C5              _L104:
 849  00C5  0003        	ret
 849  00C6              _Voltage endp
 849  00C6              #line 849 "D:\Project\pcollar640\HT66F0185\HT66F0185.c"
 849  00C6              #pragma debug scope 1 1
 849  00C6              public _Switch
 849  00C6              #pragma debug scope 13 1
 854  00C6              #line 854 "D:\Project\pcollar640\HT66F0185\HT66F0185.c"
 854  0000              _Switch .section 'code'
 854  0000              _Switch proc
 855  0000              #line 855 "D:\Project\pcollar640\HT66F0185\HT66F0185.c"
 855  0000  3015        	set [21].0
 856  0001              #line 856 "D:\Project\pcollar640\HT66F0185\HT66F0185.c"
 856  0001  3016        	set [22].0
 857  0002              #line 857 "D:\Project\pcollar640\HT66F0185\HT66F0185.c"
 857  0002  0714        	mov a,[20]
 857  0003  0080     E  	mov ra,a
 857  0004  0F01        	mov a,1
 857  0005  0680     E  	andm a,ra
 857  0006  1080     E  	sz ra
 857  0007  2800     R  	jmp _L121
 859  0008              #line 859 "D:\Project\pcollar640\HT66F0185\HT66F0185.c"
 859  0008  0700     R  	mov a,_lcd_data[1]
 859  0009  0080     E  	mov ra,a
 859  000A  0FF0        	mov a,240
 859  000B  0680     E  	andm a,ra
 859  000C  0700     E  	mov a,ra
 859  000D  0080     R  	mov _lcd_data[1],a
 860  000E              #line 860 "D:\Project\pcollar640\HT66F0185\HT66F0185.c"
 860  000E  0700     R  	mov a,_lcd_data[1]
 860  000F  0080     E  	mov ra,a
 860  0010  3000     E  	set ra.2
 860  0011  0700     E  	mov a,ra
 860  0012  0080     R  	mov _lcd_data[1],a
 860  0013  2800     R  	jmp _L120
 860  0014              _L121:
 864  0014              #line 864 "D:\Project\pcollar640\HT66F0185\HT66F0185.c"
 864  0014  0700     R  	mov a,_lcd_data[1]
 864  0015  0080     E  	mov ra,a
 864  0016  0FF0        	mov a,240
 864  0017  0680     E  	andm a,ra
 864  0018  0700     E  	mov a,ra
 864  0019  0080     R  	mov _lcd_data[1],a
 865  001A              #line 865 "D:\Project\pcollar640\HT66F0185\HT66F0185.c"
 865  001A  0700     R  	mov a,_lcd_data[1]
文件：HT66F0185.c  编译器版本 HGASM 0202 页次53

 865  001B  0080     E  	mov ra,a
 865  001C  3000     E  	set ra.3
 865  001D  0700     E  	mov a,ra
 865  001E  0080     R  	mov _lcd_data[1],a
 865  001F              _L120:
 865  001F  0003        	ret
 865  0020              _Switch endp
 865  0020              #line 865 "D:\Project\pcollar640\HT66F0185\HT66F0185.c"
 865  0020              #pragma debug scope 1 1
 865  0020              ___wdtc equ [26]
 865  0020              public _main
 865  0020              #pragma debug scope 14 1
 871  0020              #line 871 "D:\Project\pcollar640\HT66F0185\HT66F0185.c"
 871  0020              IFDEF WITH_DEFAULT_STARTUP
 871  0020              extern _main_initial0:near
 871  0020              extern _main_startup:near
 871  0020              ENDIF
 871  0020              
 871  0020              ROMBANK 0 @start
 871  0000              @start .section com_l 'code'
 871  0000              _main_startup1:
 871  0000              @start .section com_e 'code'
 871  0000  2800     R  	jmp _main
 871  0001              
 871  0000              _main .section 'code'
 871  0000              _main proc
 872  0000              #line 872 "D:\Project\pcollar640\HT66F0185\HT66F0185.c"
 872  0000  2000     R  	call _initail
 872  0001              _L128:
 875  0001              #line 875 "D:\Project\pcollar640\HT66F0185\HT66F0185.c"
 875  0001  0700     R  	mov a,_f_flag[2]
 875  0002  0080     E  	mov ra,a
 875  0003  0F08        	mov a,8
 875  0004  0680     E  	andm a,ra
 875  0005  1080     E  	sz ra
 875  0006  2800     R  	jmp _LI12
 875  0007  2800     R  	jmp _L124
 875  0008              _LI12:
 877  0008              #line 877 "D:\Project\pcollar640\HT66F0185\HT66F0185.c"
 877  0008  3400     R  	clr _f_flag[2].3
 878  0009              #line 878 "D:\Project\pcollar640\HT66F0185\HT66F0185.c"
 878  0009  364A        	clr [74].4
 879  000A              #line 879 "D:\Project\pcollar640\HT66F0185\HT66F0185.c"
 879  000A  36A2        	clr [34].5
 880  000B              #line 880 "D:\Project\pcollar640\HT66F0185\HT66F0185.c"
 880  000B  37A4        	clr [36].7
 881  000C              #line 881 "D:\Project\pcollar640\HT66F0185\HT66F0185.c"
 881  000C  3724        	clr [36].6
 882  000D              #line 882 "D:\Project\pcollar640\HT66F0185\HT66F0185.c"
 882  000D  36A5        	clr [37].5
 883  000E              #line 883 "D:\Project\pcollar640\HT66F0185\HT66F0185.c"
 883  000E  3625        	clr [37].4
 884  000F              #line 884 "D:\Project\pcollar640\HT66F0185\HT66F0185.c"
 884  000F  3400     R  	clr _f_flag[2].2
 886  0010              #line 886 "D:\Project\pcollar640\HT66F0185\HT66F0185.c"
 886  0010  3595        	clr [21].3
 887  0011              #line 887 "D:\Project\pcollar640\HT66F0185\HT66F0185.c"
 887  0011  3541        	clr [65].2
 888  0012              #line 888 "D:\Project\pcollar640\HT66F0185\HT66F0185.c"
 888  0012  36C1        	clr [65].5
文件：HT66F0185.c  编译器版本 HGASM 0202 页次54

 889  0013              #line 889 "D:\Project\pcollar640\HT66F0185\HT66F0185.c"
 889  0013  3494        	clr [20].1
 890  0014              #line 890 "D:\Project\pcollar640\HT66F0185\HT66F0185.c"
 890  0014  3725        	clr [37].6
 891  0015              #line 891 "D:\Project\pcollar640\HT66F0185\HT66F0185.c"
 891  0015  3441        	clr [65].0
 892  0016              #line 892 "D:\Project\pcollar640\HT66F0185\HT66F0185.c"
 892  0016  34C1        	clr [65].1
 893  0017              #line 893 "D:\Project\pcollar640\HT66F0185\HT66F0185.c"
 893  0017  3641        	clr [65].4
 894  0018              #line 894 "D:\Project\pcollar640\HT66F0185\HT66F0185.c"
 894  0018  3594        	clr [20].3
 895  0019              #line 895 "D:\Project\pcollar640\HT66F0185\HT66F0185.c"
 895  0019  1F4A        	clr [74]
 896  001A              #line 896 "D:\Project\pcollar640\HT66F0185\HT66F0185.c"
 896  001A  1F4B        	clr [75]
 897  001B              #line 897 "D:\Project\pcollar640\HT66F0185\HT66F0185.c"
 897  001B  1F4D        	clr [77]
 898  001C              #line 898 "D:\Project\pcollar640\HT66F0185\HT66F0185.c"
 898  001C  1F4E        	clr [78]
 899  001D              #line 899 "D:\Project\pcollar640\HT66F0185\HT66F0185.c"
 899  001D  0FA8        	mov a,168
 899  001E  009A        	mov [26],a
 901  001F              #line 901 "D:\Project\pcollar640\HT66F0185\HT66F0185.c"
 901  001F              ;# 901 "D:\Project\pcollar640\HT66F0185\HT66F0185.c" 1
 901  001F  0002        	halt
 903  0020              #line 903 "D:\Project\pcollar640\HT66F0185\HT66F0185.c"
 903  0020  3000     R  	set _f_flag[2].4
 904  0021              #line 904 "D:\Project\pcollar640\HT66F0185\HT66F0185.c"
 904  0021  0F53        	mov a,83
 904  0022  009A        	mov [26],a
 905  0023              #line 905 "D:\Project\pcollar640\HT66F0185\HT66F0185.c"
 905  0023  324A        	set [74].4
 905  0024              _L124:
 908  0024              #line 908 "D:\Project\pcollar640\HT66F0185\HT66F0185.c"
 908  0024  2000     R  	call _CMT_TX
 909  0025              #line 909 "D:\Project\pcollar640\HT66F0185\HT66F0185.c"
 909  0025              ;# 909 "D:\Project\pcollar640\HT66F0185\HT66F0185.c" 1
 909  0025  0001        	clr wdt
 910  0026              #line 910 "D:\Project\pcollar640\HT66F0185\HT66F0185.c"
 910  0026  0700     R  	mov a,_f_flag[1]
 910  0027  0080     E  	mov ra,a
 910  0028  0F04        	mov a,4
 910  0029  0680     E  	andm a,ra
 910  002A  1080     E  	sz ra
 910  002B  2800     R  	jmp _LI13
 910  002C  2800     R  	jmp _L125
 910  002D              _LI13:
 912  002D              #line 912 "D:\Project\pcollar640\HT66F0185\HT66F0185.c"
 912  002D  3225        	set [37].4
 913  002E              #line 913 "D:\Project\pcollar640\HT66F0185\HT66F0185.c"
 913  002E  3400     R  	clr _f_flag[1].2
 914  002F              #line 914 "D:\Project\pcollar640\HT66F0185\HT66F0185.c"
 914  002F  2000     R  	call _Switch
 915  0030              #line 915 "D:\Project\pcollar640\HT66F0185\HT66F0185.c"
 915  0030  2000     R  	call _KEY
 916  0031              #line 916 "D:\Project\pcollar640\HT66F0185\HT66F0185.c"
 916  0031  2000     R  	call _Voltage
 917  0032              #line 917 "D:\Project\pcollar640\HT66F0185\HT66F0185.c"
 917  0032  0700     R  	mov a,_f_flag[0]
文件：HT66F0185.c  编译器版本 HGASM 0202 页次55

 917  0033  0080     E  	mov ra,a
 917  0034  0F02        	mov a,2
 917  0035  0680     E  	andm a,ra
 917  0036  1080     E  	sz ra
 917  0037  2800     R  	jmp _L126
 917  0038  0700     R  	mov a,_f_flag[0]
 917  0039  0080     E  	mov ra,a
 917  003A  0F04        	mov a,4
 917  003B  0680     E  	andm a,ra
 917  003C  1080     E  	sz ra
 917  003D  2800     R  	jmp _L126
 917  003E  0700     R  	mov a,_f_flag[0]
 917  003F  0080     E  	mov ra,a
 917  0040  0F01        	mov a,1
 917  0041  0680     E  	andm a,ra
 917  0042  1080     E  	sz ra
 917  0043  2800     R  	jmp _LI14
 917  0044  2800     R  	jmp _L125
 917  0045              _LI14:
 917  0045              _L126:
 919  0045              #line 919 "D:\Project\pcollar640\HT66F0185\HT66F0185.c"
 919  0045  3400     R  	clr _f_flag[0].0
 920  0046              #line 920 "D:\Project\pcollar640\HT66F0185\HT66F0185.c"
 920  0046  3400     R  	clr _f_flag[0].1
 921  0047              #line 921 "D:\Project\pcollar640\HT66F0185\HT66F0185.c"
 921  0047  3400     R  	clr _f_flag[0].2
 923  0048              #line 923 "D:\Project\pcollar640\HT66F0185\HT66F0185.c"
 923  0048  3000     R  	set _f_flag[1].4
 924  0049              #line 924 "D:\Project\pcollar640\HT66F0185\HT66F0185.c"
 924  0049  1F00     R  	clr _a_1min[0]
 925  004A              #line 925 "D:\Project\pcollar640\HT66F0185\HT66F0185.c"
 925  004A  0700     R  	mov a,_f_flag[2]
 925  004B  0080     E  	mov ra,a
 925  004C  0F10        	mov a,16
 925  004D  0680     E  	andm a,ra
 925  004E  1080     E  	sz ra
 925  004F  2800     R  	jmp _LI15
 925  0050  2800     R  	jmp _L127
 925  0051              _LI15:
 927  0051              #line 927 "D:\Project\pcollar640\HT66F0185\HT66F0185.c"
 927  0051  3400     R  	clr _f_flag[2].4
 928  0052              #line 928 "D:\Project\pcollar640\HT66F0185\HT66F0185.c"
 928  0052  0F08        	mov a,8
 928  0053  0080     R  	mov _a_set_count[0],a
 928  0054  2800     R  	jmp _L125
 928  0055              _L127:
 930  0055              #line 930 "D:\Project\pcollar640\HT66F0185\HT66F0185.c"
 930  0055  0F02        	mov a,2
 930  0056  0080     R  	mov _a_set_count[0],a
 933  0057              #line 933 "D:\Project\pcollar640\HT66F0185\HT66F0185.c"
 933  0057  2800     R  	jmp _L128
 933  0058              _L125:
 933  0058  2800     R  	jmp _L128
 933  0059  2800     R  	jmp $
 933  005A              _main endp
 933  005A              
 933  005A              @dummy endp
 933  005A              
 933  005A              #line 933 "D:\Project\pcollar640\HT66F0185\HT66F0185.c"
 933  005A              #pragma debug scope 1 1
文件：HT66F0185.c  编译器版本 HGASM 0202 页次56

 933  005A              #pragma debug variable 8 1 ___mp1 "__mp1" 1
 933  005A              #pragma debug struct_end
 933  005A              #pragma debug struct_end
 933  005A              #pragma debug union_end
 933  005A              #pragma debug union_end
 933  005A              #pragma debug variable 48 1 ___bp "__bp" 1
 933  005A              #pragma debug struct_end
 933  005A              #pragma debug struct_end
 933  005A              #pragma debug union_end
 933  005A              #pragma debug union_end
 933  005A              #pragma debug variable 50 1 ___smod "__smod" 1
 933  005A              #pragma debug struct_end
 933  005A              #pragma debug struct_end
 933  005A              #pragma debug union_end
 933  005A              #pragma debug union_end
 933  005A              #pragma debug variable 52 1 ___lvdc "__lvdc" 1
 933  005A              #pragma debug struct_end
 933  005A              #pragma debug struct_end
 933  005A              #pragma debug union_end
 933  005A              #pragma debug union_end
 933  005A              #pragma debug variable 54 1 ___intc0 "__intc0" 1
 933  005A              #pragma debug struct_end
 933  005A              #pragma debug struct_end
 933  005A              #pragma debug union_end
 933  005A              #pragma debug union_end
 933  005A              #pragma debug variable 56 1 ___intc1 "__intc1" 1
 933  005A              #pragma debug struct_end
 933  005A              #pragma debug struct_end
 933  005A              #pragma debug union_end
 933  005A              #pragma debug union_end
 933  005A              #pragma debug variable 58 1 ___mfi1 "__mfi1" 1
 933  005A              #pragma debug struct_end
 933  005A              #pragma debug struct_end
 933  005A              #pragma debug union_end
 933  005A              #pragma debug union_end
 933  005A              #pragma debug variable 60 1 ___pa "__pa" 1
 933  005A              #pragma debug struct_end
 933  005A              #pragma debug struct_end
 933  005A              #pragma debug union_end
 933  005A              #pragma debug union_end
 933  005A              #pragma debug variable 62 1 ___pac "__pac" 1
 933  005A              #pragma debug struct_end
 933  005A              #pragma debug struct_end
 933  005A              #pragma debug union_end
 933  005A              #pragma debug union_end
 933  005A              #pragma debug variable 64 1 ___papu "__papu" 1
 933  005A              #pragma debug struct_end
 933  005A              #pragma debug struct_end
 933  005A              #pragma debug union_end
 933  005A              #pragma debug union_end
 933  005A              #pragma debug variable 66 1 ___pawu "__pawu" 1
 933  005A              #pragma debug struct_end
 933  005A              #pragma debug struct_end
 933  005A              #pragma debug union_end
 933  005A              #pragma debug union_end
 933  005A              #pragma debug variable 68 1 ___wdtc "__wdtc" 1
 933  005A              #pragma debug variable 8 1 ___sadoh "__sadoh" 1
 933  005A              #pragma debug struct_end
 933  005A              #pragma debug struct_end
 933  005A              #pragma debug union_end
文件：HT66F0185.c  编译器版本 HGASM 0202 页次57

 933  005A              #pragma debug union_end
 933  005A              #pragma debug variable 70 1 ___sadc0 "__sadc0" 1
 933  005A              #pragma debug struct_end
 933  005A              #pragma debug struct_end
 933  005A              #pragma debug union_end
 933  005A              #pragma debug union_end
 933  005A              #pragma debug variable 72 1 ___sadc1 "__sadc1" 1
 933  005A              #pragma debug struct_end
 933  005A              #pragma debug struct_end
 933  005A              #pragma debug union_end
 933  005A              #pragma debug union_end
 933  005A              #pragma debug variable 74 1 ___sadc2 "__sadc2" 1
 933  005A              #pragma debug struct_end
 933  005A              #pragma debug struct_end
 933  005A              #pragma debug union_end
 933  005A              #pragma debug union_end
 933  005A              #pragma debug variable 76 1 ___pb "__pb" 1
 933  005A              #pragma debug struct_end
 933  005A              #pragma debug struct_end
 933  005A              #pragma debug union_end
 933  005A              #pragma debug union_end
 933  005A              #pragma debug variable 78 1 ___pbc "__pbc" 1
 933  005A              #pragma debug struct_end
 933  005A              #pragma debug struct_end
 933  005A              #pragma debug union_end
 933  005A              #pragma debug union_end
 933  005A              #pragma debug variable 80 1 ___tm1c0 "__tm1c0" 1
 933  005A              #pragma debug struct_end
 933  005A              #pragma debug struct_end
 933  005A              #pragma debug union_end
 933  005A              #pragma debug union_end
 933  005A              #pragma debug variable 82 1 ___tm1c1 "__tm1c1" 1
 933  005A              #pragma debug variable 8 1 ___tm1al "__tm1al" 1
 933  005A              #pragma debug variable 8 1 ___tm1ah "__tm1ah" 1
 933  005A              #pragma debug struct_end
 933  005A              #pragma debug struct_end
 933  005A              #pragma debug union_end
 933  005A              #pragma debug union_end
 933  005A              #pragma debug variable 84 1 ___cpc "__cpc" 1
 933  005A              #pragma debug struct_end
 933  005A              #pragma debug struct_end
 933  005A              #pragma debug union_end
 933  005A              #pragma debug union_end
 933  005A              #pragma debug variable 86 1 ___pc "__pc" 1
 933  005A              #pragma debug struct_end
 933  005A              #pragma debug struct_end
 933  005A              #pragma debug union_end
 933  005A              #pragma debug union_end
 933  005A              #pragma debug variable 88 1 ___pcc "__pcc" 1
 933  005A              #pragma debug struct_end
 933  005A              #pragma debug struct_end
 933  005A              #pragma debug union_end
 933  005A              #pragma debug union_end
 933  005A              #pragma debug variable 90 1 ___acerl "__acerl" 1
 933  005A              #pragma debug struct_end
 933  005A              #pragma debug struct_end
 933  005A              #pragma debug union_end
 933  005A              #pragma debug union_end
 933  005A              #pragma debug variable 92 1 ___slcdc0 "__slcdc0" 1
 933  005A              #pragma debug struct_end
文件：HT66F0185.c  编译器版本 HGASM 0202 页次58

 933  005A              #pragma debug struct_end
 933  005A              #pragma debug union_end
 933  005A              #pragma debug union_end
 933  005A              #pragma debug variable 94 1 ___slcdc1 "__slcdc1" 1
 933  005A              #pragma debug struct_end
 933  005A              #pragma debug struct_end
 933  005A              #pragma debug union_end
 933  005A              #pragma debug union_end
 933  005A              #pragma debug variable 96 1 ___slcdc3 "__slcdc3" 1
 933  005A              #pragma debug struct_end
 933  005A              #pragma debug struct_end
 933  005A              #pragma debug union_end
 933  005A              #pragma debug union_end
 933  005A              #pragma debug variable 98 1 ___slcdc4 "__slcdc4" 1
 933  005A              #pragma debug struct_end
 933  005A              #pragma debug struct_end
 933  005A              #pragma debug union_end
 933  005A              #pragma debug union_end
 933  005A              #pragma debug variable 100 1 ___pd "__pd" 1
 933  005A              #pragma debug struct_end
 933  005A              #pragma debug struct_end
 933  005A              #pragma debug union_end
 933  005A              #pragma debug union_end
 933  005A              #pragma debug variable 102 1 ___pdc "__pdc" 1
 933  005A              #pragma debug variable 8 1 ___iar1 "__iar1" 1
 933  005A              extern r1:byte
 933  005A              extern r2:byte
 871  005A              #line 871 "D:\Project\pcollar640\HT66F0185\HT66F0185.c"
 871  0000              @code .section at 0 'code'
 871  0000  2800     R  	jmp _main_startup1
 871  0001              
 871  0001              extern _builtin_holtek_mulhi3_2:byte
 871  0001              extern _builtin_holtek_mulhi3:near
 871  0001              
 871  0001              ; 
 871  0001              ; Generated by holtek-gcc v3.18, Tue Jun 26 18:03:20 2018
 871  0001              ; Rebuild 126
 871  0001              ; end of file


        0 Errors, 0